(dp0
I0
(lp1
V2018-04-25 | $aapl was slow to develop Siri and what it could be, on the other hand $amzn with it\u2019s multiple devices with Alexa\u2026 https://t.co/35WfMdexaD
p2
aV2018-04-25 | RT @BIGMONEYMIKE6: DONT GET LEFT OUT OF THE BIGGEST #PENNYSTOCKS ALERT IN HISTORY !!  JOIN #TEAMCRYPTO ON MAY 1ST &amp; TURN UR $1,000 INVESTME\u2026
p3
aV2018-04-25 | Thursday: $FB, $ANTM, $AMD, $NFLX, $AAPL, $INTC
p4
aV2018-04-25 | RT @Sandro_power: $SPY $AAPL $FB $BA $TWTR $WYNN  Live stream tonight at 9:30pm I will be expanding with more proof and power while most ju\u2026
p5
aV2018-04-25 | RT @BIGMONEYMIKE6: DONT GET LEFT OUT OF THE BIGGEST #PENNYSTOCKS ALERT IN HISTORY !!  JOIN #TEAMCRYPTO ON MAY 1ST &amp; TURN UR $1,000 INVESTME\u2026
p6
aV2018-04-25 | RT @BIGMONEYMIKE6: DONT GET LEFT OUT OF THE BIGGEST #PENNYSTOCKS ALERT IN HISTORY !!  JOIN #TEAMCRYPTO ON MAY 1ST &amp; TURN UR $1,000 INVESTME\u2026
p7
aV2018-04-25 | RT @WarrenBuffetHQ: I\u2019ve seen more people fail because of liquor and leverage \u2013 leverage being borrowed money.  The Best Stock Investment F\u2026
p8
aV2018-04-25 | WSJ: Speaker maker Sonos files confidentially for IPO https://t.co/P0nL8nCnFg $AMZN $AAPL $GOOG $GOOGL
p9
aV2018-04-25 | RT @Sandro_power: $SPY $AAPL $FB $BA $TWTR $WYNN  Live stream tonight at 9:30pm I will be expanding with more proof and power while most ju\u2026
p10
aV2018-04-25 | RT @BIGMONEYMIKE6: DONT GET LEFT OUT OF THE BIGGEST #PENNYSTOCKS ALERT IN HISTORY !!  JOIN #TEAMCRYPTO ON MAY 1ST &amp; TURN UR $1,000 INVESTME\u2026
p11
aV2018-04-25 | $SPY $SPX $QQQ $IWM $AMZN $FB $AAPL $BA Russia and China Militaries Reach \u2018New Heights\u2019 Together, Agree to Challeng\u2026 https://t.co/flRJRAOA2E
p12
aV2018-04-25 | RT @BIGMONEYMIKE6: DONT GET LEFT OUT OF THE BIGGEST #PENNYSTOCKS ALERT IN HISTORY !!  JOIN #TEAMCRYPTO ON MAY 1ST &amp; TURN UR $1,000 INVESTME\u2026
p13
aV2018-04-25 | RT @johnscharts: $AAPL piercing candle at 200 MA. Worth watching https://t.co/eKOgtTHprm
p14
aV2018-04-25 | RT @Sandro_power: $SPY $AAPL $FB $BA $TWTR $WYNN  Live stream tonight at 9:30pm I will be expanding with more proof and power while most ju\u2026
p15
aV2018-04-25 | Trump and Cook talked trade in Oval Office meeting https://t.co/doG1tEmxMs $AAPL https://t.co/gVkTsZoHvY
p16
aV2018-04-25 | RT @androsForm: $AAPL $SPY $QQQ $STUDY First Candle Indicator https://t.co/nL0Juq8oQE
p17
aV2018-04-25 | RT @BIGMONEYMIKE6: DONT GET LEFT OUT OF THE BIGGEST #PENNYSTOCKS ALERT IN HISTORY !!  JOIN #TEAMCRYPTO ON MAY 1ST &amp; TURN UR $1,000 INVESTME\u2026
p18
aV2018-04-25 | RT @BIGMONEYMIKE6: DONT GET LEFT OUT OF THE BIGGEST #PENNYSTOCKS ALERT IN HISTORY !!  JOIN #TEAMCRYPTO ON MAY 1ST &amp; TURN UR $1,000 INVESTME\u2026
p19
aV2018-04-25 | RT @androsForm: $AAPL $SPY $QQQ $STUDY First Candle Indicator https://t.co/nL0Juq8oQE
p20
aV2018-04-25 | RT @Penniesgonewild: \U0001f449 $CELZ \U0001f448 Awesome Chart \U0001f525 hang on for the ride as we move higher \U0001f680 \U0001f680  $AAPL $LDSR $CSCO $LLNW $QCOM $RXMD $GE $CRM $OR\u2026
p21
aV2018-04-25 | RT @BIGMONEYMIKE6: DONT GET LEFT OUT OF THE BIGGEST #PENNYSTOCKS ALERT IN HISTORY !!  JOIN #TEAMCRYPTO ON MAY 1ST &amp; TURN UR $1,000 INVESTME\u2026
p22
aV2018-04-25 | RT @BIGMONEYMIKE6: DONT GET LEFT OUT OF THE BIGGEST #PENNYSTOCKS ALERT IN HISTORY !!  JOIN #TEAMCRYPTO ON MAY 1ST &amp; TURN UR $1,000 INVESTME\u2026
p23
aV2018-04-25 | RT @BIGMONEYMIKE6: DONT GET LEFT OUT OF THE BIGGEST #PENNYSTOCKS ALERT IN HISTORY !!  JOIN #TEAMCRYPTO ON MAY 1ST &amp; TURN UR $1,000 INVESTME\u2026
p24
aV2018-04-25 | RT @BIGMONEYMIKE6: DONT GET LEFT OUT OF THE BIGGEST #PENNYSTOCKS ALERT IN HISTORY !!  JOIN #TEAMCRYPTO ON MAY 1ST &amp; TURN UR $1,000 INVESTME\u2026
p25
aV2018-04-25 | RT @BIGMONEYMIKE6: DONT GET LEFT OUT OF THE BIGGEST #PENNYSTOCKS ALERT IN HISTORY !!  JOIN #TEAMCRYPTO ON MAY 1ST &amp; TURN UR $1,000 INVESTME\u2026
p26
aV2018-04-25 | RT @BIGMONEYMIKE6: DONT GET LEFT OUT OF THE BIGGEST #PENNYSTOCKS ALERT IN HISTORY !!  JOIN #TEAMCRYPTO ON MAY 1ST &amp; TURN UR $1,000 INVESTME\u2026
p27
aV2018-04-25 | Dow up 59 $AAPL $AMZN $TWTR $FB $CMG $BTC.X $SQ $GBTC $TSLA #Kanye https://t.co/IT1vUVIOpA
p28
aV2018-04-25 | RT @BIGMONEYMIKE6: DONT GET LEFT OUT OF THE BIGGEST #PENNYSTOCKS ALERT IN HISTORY !!  JOIN #TEAMCRYPTO ON MAY 1ST &amp; TURN UR $1,000 INVESTME\u2026
p29
aV2018-04-25 | RT @WarrenBuffetHQ: Risk comes from not knowing what you\u2019re doing  The Best Stock Investment For 2018 HIV Vaccine 100% Effective, Extremely\u2026
p30
aV2018-04-25 | RT @PowerLunch: Replying to @kanyewest "So, Mr. President, what do you think of Apple's chances in the #CNBCStockDraft? I'm feeling confide\u2026
p31
aV2018-04-25 | RT @WarrenBuffetHQ: In the world of business, the people who are most successful are those who are doing what they love  The Best Stock Inv\u2026
p32
aV2018-04-25 | RT @BIGMONEYMIKE6: DONT GET LEFT OUT OF THE BIGGEST #PENNYSTOCKS ALERT IN HISTORY !!  JOIN #TEAMCRYPTO ON MAY 1ST &amp; TURN UR $1,000 INVESTME\u2026
p33
aV2018-04-25 | RT @BIGMONEYMIKE6: DONT GET LEFT OUT OF THE BIGGEST #PENNYSTOCKS ALERT IN HISTORY !!  JOIN #TEAMCRYPTO ON MAY 1ST &amp; TURN UR $1,000 INVESTME\u2026
p34
aV2018-04-25 | RT @BIGMONEYMIKE6: DONT GET LEFT OUT OF THE BIGGEST #PENNYSTOCKS ALERT IN HISTORY !!  JOIN #TEAMCRYPTO ON MAY 1ST &amp; TURN UR $1,000 INVESTME\u2026
p35
aV2018-04-25 | RT @BIGMONEYMIKE6: DONT GET LEFT OUT OF THE BIGGEST #PENNYSTOCKS ALERT IN HISTORY !!  JOIN #TEAMCRYPTO ON MAY 1ST &amp; TURN UR $1,000 INVESTME\u2026
p36
aV2018-04-25 | $FB Excellent earnings. Up big after-hours. Ready to test 200 day. Could be a wild Thursday. Want to see if the clo\u2026 https://t.co/dy8xdJtq35
p37
aV2018-04-25 | RT @BIGMONEYMIKE6: DONT GET LEFT OUT OF THE BIGGEST #PENNYSTOCKS ALERT IN HISTORY !!  JOIN #TEAMCRYPTO ON MAY 1ST &amp; TURN UR $1,000 INVESTME\u2026
p38
aV2018-04-25 | RT @BIGMONEYMIKE6: DONT GET LEFT OUT OF THE BIGGEST #PENNYSTOCKS ALERT IN HISTORY !!  JOIN #TEAMCRYPTO ON MAY 1ST &amp; TURN UR $1,000 INVESTME\u2026
p39
aV2018-04-25 | RT @BIGMONEYMIKE6: DONT GET LEFT OUT OF THE BIGGEST #PENNYSTOCKS ALERT IN HISTORY !!  JOIN #TEAMCRYPTO ON MAY 1ST &amp; TURN UR $1,000 INVESTME\u2026
p40
aV2018-04-25 | RT @Sandro_power: I explain an $AAPL update with some key facts   https://t.co/UWZhxJFRTx
p41
aV2018-04-25 | Apple TV viewing hours surged 709 percent in March quarter https://t.co/brP02Km8dX $AAPL https://t.co/3EfJDm68GL
p42
aV2018-04-25 | RT @BIGMONEYMIKE6: DONT GET LEFT OUT OF THE BIGGEST #PENNYSTOCKS ALERT IN HISTORY !!  JOIN #TEAMCRYPTO ON MAY 1ST &amp; TURN UR $1,000 INVESTME\u2026
p43
aV2018-04-25 | RT @businessinsider: Apple made a controversial change in 2016 \u2014 but now all of Silicon Valley is playing catch-up $AAPL $FB $GOOG $GOOGL h\u2026
p44
aV2018-04-25 | RT @BIGMONEYMIKE6: DONT GET LEFT OUT OF THE BIGGEST #PENNYSTOCKS ALERT IN HISTORY !!  JOIN #TEAMCRYPTO ON MAY 1ST &amp; TURN UR $1,000 INVESTME\u2026
p45
aV2018-04-25 | RT @BIGMONEYMIKE6: DONT GET LEFT OUT OF THE BIGGEST #PENNYSTOCKS ALERT IN HISTORY !!  JOIN #TEAMCRYPTO ON MAY 1ST &amp; TURN UR $1,000 INVESTME\u2026
p46
aV2018-04-25 | Replying to @kanyewest "So, Mr. President, what do you think of Apple's chances in the #CNBCStockDraft? I'm feeling\u2026 https://t.co/ZaE4KN5gNU
p47
aV2018-04-25 | Replying to @kanyewest "So, Mr. President, what do you think of Apple's chances in the #CNBCStockDraft? I'm feeling\u2026 https://t.co/sJ8qgivjuD
p48
aV2018-04-25 | RT @Penniesgonewild: \U0001f449 $CELZ \U0001f448 Awesome Chart \U0001f525 hang on for the ride as we move higher \U0001f680 \U0001f680  $AAPL $LDSR $CSCO $LLNW $QCOM $RXMD $GE $CRM $OR\u2026
p49
aV2018-04-25 | @kanyewest "So, Mr. President, what do you think of Apple's chances in the #CNBCStockDraft? I'm feeling confident\u2026 https://t.co/Ugp72tozFC
p50
aV2018-04-25 | Remember who started ER craze? $NFLX  With all beats and fire tomorrow this can shoot to ATH \u2604\ufe0f $FB $AAPL $AMZN $GOOGL $TSLA All will \U0001f525\U0001f525
p51
aV2018-04-25 | When you\u2019re try to get meetings with google &amp; Apple but are still promoting Microsoft office \U0001f937\U0001f3fc\u200d\u2640\ufe0f   $googl $aapl\u2026 https://t.co/5qUKGV7ONg
p52
aV2018-04-25 | RT @BIGMONEYMIKE6: DONT GET LEFT OUT OF THE BIGGEST #PENNYSTOCKS ALERT IN HISTORY !!  JOIN #TEAMCRYPTO ON MAY 1ST &amp; TURN UR $1,000 INVESTME\u2026
p53
aV2018-04-25 | Financial markets held the 200dma once again and held some key Fibonacci levels. $FB earnings taking tech higher. M\u2026 https://t.co/tytswEoVCh
p54
aV2018-04-25 | RT @BIGMONEYMIKE6: DONT GET LEFT OUT OF THE BIGGEST #PENNYSTOCKS ALERT IN HISTORY !!  JOIN #TEAMCRYPTO ON MAY 1ST &amp; TURN UR $1,000 INVESTME\u2026
p55
aV2018-04-25 | RT @appleinsider: In defense of @tim_cook: Why, despite weeks of bad @apple news, the company remains in good hands #Apple $aapl https://t.\u2026
p56
aV2018-04-25 | RT @androsForm: $AAPL $SPY $QQQ $STUDY First Candle Indicator https://t.co/nL0Juq8oQE
p57
aV2018-04-25 | RT @BIGMONEYMIKE6: DONT GET LEFT OUT OF THE BIGGEST #PENNYSTOCKS ALERT IN HISTORY !!  JOIN #TEAMCRYPTO ON MAY 1ST &amp; TURN UR $1,000 INVESTME\u2026
p58
aV2018-04-25 | RT @BIGMONEYMIKE6: DONT GET LEFT OUT OF THE BIGGEST #PENNYSTOCKS ALERT IN HISTORY !!  JOIN #TEAMCRYPTO ON MAY 1ST &amp; TURN UR $1,000 INVESTME\u2026
p59
aV2018-04-25 | RT @BIGMONEYMIKE6: DONT GET LEFT OUT OF THE BIGGEST #PENNYSTOCKS ALERT IN HISTORY !!  JOIN #TEAMCRYPTO ON MAY 1ST &amp; TURN UR $1,000 INVESTME\u2026
p60
aV2018-04-25 | RT @CryptoMomoTrade: RT Short Squeeze Imminent $UITA  .02's up Next! $MEDH .15+ BOTH 52 WK HIGHS   $CELZ $NVCN $FUSZ $BRKK $MJNA $BTCS $BTS\u2026
p61
aV2018-04-25 | 8 p.m. ET tonight $FB LIVE join me https://t.co/t9pkv8hwB7 we'll talk about hot stocks like $AMD $GOOGL $GOOG $AAPL\u2026 https://t.co/dEhWrs0Con
p62
aV2018-04-25 | @kanyewest #CNBCStockDraft question: If you had to pick your favorite stock for our show tomorrow, would it be\u2026 https://t.co/r3cbV9dEs3
p63
aV2018-04-25 | RT @BIGMONEYMIKE6: DONT GET LEFT OUT OF THE BIGGEST #PENNYSTOCKS ALERT IN HISTORY !!  JOIN #TEAMCRYPTO ON MAY 1ST &amp; TURN UR $1,000 INVESTME\u2026
p64
aV2018-04-25 | RT @BIGMONEYMIKE6: DONT GET LEFT OUT OF THE BIGGEST #PENNYSTOCKS ALERT IN HISTORY !!  JOIN #TEAMCRYPTO ON MAY 1ST &amp; TURN UR $1,000 INVESTME\u2026
p65
aV2018-04-25 | Crowddfense offering up to $3 million for a zero-day exploit on variety of operating systems\u2026 https://t.co/Izak5uES2G
p66
aV2018-04-25 | RT @BIGMONEYMIKE6: DONT GET LEFT OUT OF THE BIGGEST #PENNYSTOCKS ALERT IN HISTORY !!  JOIN #TEAMCRYPTO ON MAY 1ST &amp; TURN UR $1,000 INVESTME\u2026
p67
aV2018-04-25 | Join @RobinhoodApp and we'll both get a stock like $AAPL, $F, or $S for free. Make sure to use my link.  https://t.co/mmen6IW3t4
p68
aV2018-04-25 | $AAPL Max Pain is 167.50 for maturity 04/27/2018. #maxpain #options https://t.co/CCUsRwhEoM https://t.co/83faUmdnup
p69
aV2018-04-25 | RT @BIGMONEYMIKE6: DONT GET LEFT OUT OF THE BIGGEST #PENNYSTOCKS ALERT IN HISTORY !!  JOIN #TEAMCRYPTO ON MAY 1ST &amp; TURN UR $1,000 INVESTME\u2026
p70
aV2018-04-25 | RT @Sandro_power: $SPY $AAPL $FB $BA $TWTR $WYNN  Live stream tonight at 9:30pm I will be expanding with more proof and power while most ju\u2026
p71
aV2018-04-25 | RT @BIGMONEYMIKE6: DONT GET LEFT OUT OF THE BIGGEST #PENNYSTOCKS ALERT IN HISTORY !!  JOIN #TEAMCRYPTO ON MAY 1ST &amp; TURN UR $1,000 INVESTME\u2026
p72
aV2018-04-25 | RT @BIGMONEYMIKE6: DONT GET LEFT OUT OF THE BIGGEST #PENNYSTOCKS ALERT IN HISTORY !!  JOIN #TEAMCRYPTO ON MAY 1ST &amp; TURN UR $1,000 INVESTME\u2026
p73
aV2018-04-25 | A great day off after a beautiful Exit of my $NDX &amp; #RUT shorts this morning posted in chat $NQ $QQQ $SQQQ $EEM\u2026 https://t.co/4tUkHezQZB
p74
aV2018-04-25 | RT @WarrenBuffetHQ: Someone\u2019s sitting in the shade today because someone planted a tree a long time ago  The Best Stock Investment For 2018\u2026
p75
aV2018-04-25 | \U0001f449 $CELZ \U0001f448 Awesome Chart \U0001f525 hang on for the ride as we move higher \U0001f680 \U0001f680  $AAPL $LDSR $CSCO $LLNW $QCOM $RXMD $GE $CRM\u2026 https://t.co/UuiSSiuVXz
p76
aV2018-04-25 | RT @BIGMONEYMIKE6: DONT GET LEFT OUT OF THE BIGGEST #PENNYSTOCKS ALERT IN HISTORY !!  JOIN #TEAMCRYPTO ON MAY 1ST &amp; TURN UR $1,000 INVESTME\u2026
p77
aV2018-04-25 | RT @BIGMONEYMIKE6: DONT GET LEFT OUT OF THE BIGGEST #PENNYSTOCKS ALERT IN HISTORY !!  JOIN #TEAMCRYPTO ON MAY 1ST &amp; TURN UR $1,000 INVESTME\u2026
p78
aV2018-04-25 | RT @businessinsider: Apple made a controversial change in 2016 \u2014 but now all of Silicon Valley is playing catch-up $AAPL $FB $GOOG $GOOGL h\u2026
p79
aV2018-04-25 | Huge \U0001f4b0 from this #live #alert on $CERC \u2757\ufe0f  Want  more \u26a0\ufe0f just like this one?   Check out https://t.co/Lo3BFcJ6S3 fo\u2026 https://t.co/AmOPymjILa
p80
aV2018-04-25 | RT @androsForm: $AAPL $SPY $QQQ $STUDY First Candle Indicator https://t.co/nL0Juq8oQE
p81
aV2018-04-25 | Stock Screener Strategies for Swing Trading: Buy Stocks on Sale https://t.co/56PjWvkjhF $SPY $GLD $SLV $DIA $DJIA\u2026 https://t.co/MQTKdw3ZGB
p82
aV2018-04-25 | @librab103 @slingbox47 @realMatzeH1 @robinivski @QTRResearch @MontanaSkeptic1 Well, you do it after BK and keep Mus\u2026 https://t.co/f0tuLzU2wP
p83
aV2018-04-25 | Free Options Trading! Open an account with Robinhood and get a stock like $AAPL, $SNAP, or $T for FREE! Make sure t\u2026 https://t.co/b1PGdpHrGI
p84
aV2018-04-25 | RT @androsForm: $AAPL $SPY $QQQ $STUDY First Candle Indicator https://t.co/nL0Juq8oQE
p85
asI1
(lp86
V2018-04-24 | Join @RobinhoodApp and we'll both get a stock like $AAPL, $F, or $S for free. Make sure to use my link.  https://t.co/Um2XiAFg6v
p87
aV2018-04-24 | RT @BIGMONEYMIKE6: DONT GET LEFT OUT OF THE BIGGEST #PENNYSTOCKS ALERT IN HISTORY !!  JOIN #TEAMCRYPTO ON MAY 1ST &amp; TURN UR $1,000 INVESTME\u2026
p88
aV2018-04-24 | Let\u2019s go $AAPL! \U0001f600\U0001f4a6
p89
aV2018-04-24 | @ReformedBroker I guess they should buy #crypto... seems to be working out again... I just can't believe people are\u2026 https://t.co/FlZhCol1KQ
p90
aV2018-04-24 | The short sell volume percent for $USO on 2018-04-23 is 66%. https://t.co/if1TL1sqvp $COTY 33% $UMPQ 38% $JD 53% $AAPL 59%
p91
aV2018-04-24 | RT @BIGMONEYMIKE6: DONT GET LEFT OUT OF THE BIGGEST #PENNYSTOCKS ALERT IN HISTORY !!  JOIN #TEAMCRYPTO ON MAY 1ST &amp; TURN UR $1,000 INVESTME\u2026
p92
aV2018-04-24 | RT @Sandro_power: I explain an $AAPL update with some key facts   https://t.co/UWZhxJFRTx
p93
aV2018-04-24 | RT @theflynews: On The Fly: Top stock stories for Tuesday $CAT $GOOG $GOOGL $FB $AMZN $AAPL $NFLX $VZ $UTX $KO $TRV $MMM $MITL $SANM $HSII\u2026
p94
aV2018-04-24 | RT @BIGMONEYMIKE6: DONT GET LEFT OUT OF THE BIGGEST #PENNYSTOCKS ALERT IN HISTORY !!  JOIN #TEAMCRYPTO ON MAY 1ST &amp; TURN UR $1,000 INVESTME\u2026
p95
aV2018-04-24 | RT @BIGMONEYMIKE6: DONT GET LEFT OUT OF THE BIGGEST #PENNYSTOCKS ALERT IN HISTORY !!  JOIN #TEAMCRYPTO ON MAY 1ST &amp; TURN UR $1,000 INVESTME\u2026
p96
aV2018-04-24 | RT @NaviAvatar1: Dow drops 424 $AAPL $AMZN $GOOGL $OSTK $GBTC $FB $TWTR $SQ https://t.co/ehPAImqHpi
p97
aV2018-04-24 | RT @BIGMONEYMIKE6: DONT GET LEFT OUT OF THE BIGGEST #PENNYSTOCKS ALERT IN HISTORY !!  JOIN #TEAMCRYPTO ON MAY 1ST &amp; TURN UR $1,000 INVESTME\u2026
p98
aV2018-04-24 | RT @BIGMONEYMIKE6: DONT GET LEFT OUT OF THE BIGGEST #PENNYSTOCKS ALERT IN HISTORY !!  JOIN #TEAMCRYPTO ON MAY 1ST &amp; TURN UR $1,000 INVESTME\u2026
p99
aV2018-04-24 | $AAPL price to earnings ratio is 16.  $FB  is 26,  $AMZN  is 318,  $NFLX  is 183, and  $GOOGL   is 27.  Except for\u2026 https://t.co/iOtXPleMzu
p100
aV2018-04-24 | $AAPL $FB $BAC $MU $NFLX $FCX $TWTR $BABA $CAT $MSFT $GE $AMD $INTC $NVDA $AMZN $JD $GOOGL $TSLA $JPM $NXPI $YNDX\u2026 https://t.co/VinRgDSCFK
p101
aV2018-04-24 | If you watch $AAPL $CAT $MMM $GOOG $FB, you should not be questioning if 200 DMA will be broken soon on $SPX or not\u2026 https://t.co/rVVMh5B7Fj
p102
aV2018-04-24 | RT @BIGMONEYMIKE6: DONT GET LEFT OUT OF THE BIGGEST #PENNYSTOCKS ALERT IN HISTORY !!  JOIN #TEAMCRYPTO ON MAY 1ST &amp; TURN UR $1,000 INVESTME\u2026
p103
aV2018-04-24 | RT @NaviAvatar1: Dow drops 424 $AAPL $AMZN $GOOGL $OSTK $GBTC $FB $TWTR $SQ https://t.co/ehPAImqHpi
p104
aV2018-04-24 | $AAPL V/s $FB Apple Vs. Facebook: May the Best Stock Win  https://t.co/SQCyThxjdk
p105
aV2018-04-24 | RT @BIGMONEYMIKE6: DONT GET LEFT OUT OF THE BIGGEST #PENNYSTOCKS ALERT IN HISTORY !!  JOIN #TEAMCRYPTO ON MAY 1ST &amp; TURN UR $1,000 INVESTME\u2026
p106
aV2018-04-24 | RT @BIGMONEYMIKE6: DONT GET LEFT OUT OF THE BIGGEST #PENNYSTOCKS ALERT IN HISTORY !!  JOIN #TEAMCRYPTO ON MAY 1ST &amp; TURN UR $1,000 INVESTME\u2026
p107
aV2018-04-24 | Dow drops 424 $AAPL $AMZN $GOOGL $OSTK $GBTC $FB $TWTR $SQ https://t.co/ehPAImqHpi
p108
aV2018-04-24 | RT @BIGMONEYMIKE6: DONT GET LEFT OUT OF THE BIGGEST #PENNYSTOCKS ALERT IN HISTORY !!  JOIN #TEAMCRYPTO ON MAY 1ST &amp; TURN UR $1,000 INVESTME\u2026
p109
aV2018-04-24 | ThinkScript Tutorial: Using Custom Scripts In Your Stock Scanner \u2013 Dollar Volume (Millions) https://t.co/ljk796d0kw\u2026 https://t.co/zpblkik8HK
p110
aV2018-04-24 | $AAPL So the \u201cconsensus\u201d forecast 2019 revenue has dropped from 280 to 270 billion. 3% rounding error in any foreca\u2026 https://t.co/8xJ6avLyMM
p111
aV2018-04-24 | Still plenty of upside for $AAPL. Imagine what kind of subscription revenue Apple will generate when they finally f\u2026 https://t.co/GuBNHKzppp
p112
aV2018-04-24 | RT @BIGMONEYMIKE6: DONT GET LEFT OUT OF THE BIGGEST #PENNYSTOCKS ALERT IN HISTORY !!  JOIN #TEAMCRYPTO ON MAY 1ST &amp; TURN UR $1,000 INVESTME\u2026
p113
aV2018-04-24 | RT @theflynews: On The Fly: Top stock stories for Tuesday $CAT $GOOG $GOOGL $FB $AMZN $AAPL $NFLX $VZ $UTX $KO $TRV $MMM $MITL $SANM $HSII\u2026
p114
aV2018-04-24 | Apple Watch activations help boost Verizon growth despite losing phone and tablet customers https://t.co/EEN9BtQb3M\u2026 https://t.co/gEl8CfMjBg
p115
aV2018-04-24 | RT @Convertbond: Below the 200 Day Moving Average   Facebook $FB Apple $AAPL Google $GOOGL
p116
aV2018-04-24 | $AAPL I believe going forward, their foreign earnings can now be brought back tax free, is that not the case, after\u2026 https://t.co/Bb5dYcIhfA
p117
aV2018-04-24 | RT @BIGMONEYMIKE6: DONT GET LEFT OUT OF THE BIGGEST #PENNYSTOCKS ALERT IN HISTORY !!  JOIN #TEAMCRYPTO ON MAY 1ST &amp; TURN UR $1,000 INVESTME\u2026
p118
aV2018-04-24 | $AAPL  In FY 2017, Apple spent 12.8 billion on #dividends . Taking that to 20 billion in FY 18 would be over a 50%\u2026 https://t.co/fXgfnB4iPz
p119
aV2018-04-24 | RT @BIGMONEYMIKE6: DONT GET LEFT OUT OF THE BIGGEST #PENNYSTOCKS ALERT IN HISTORY !!  JOIN #TEAMCRYPTO ON MAY 1ST &amp; TURN UR $1,000 INVESTME\u2026
p120
aV2018-04-24 | RT @WarrenBuffetHQ: Truly beneficial influence is that which flows naturally from your attention to what is correct  $MYMX The Best Stock I\u2026
p121
aV2018-04-24 | $AAPL If they spent $20B on #dividends they would still have $35+B left per year for #buybacks and other uses, not\u2026 https://t.co/7CxaGp7NAT
p122
aV2018-04-24 | RT @BIGMONEYMIKE6: DONT GET LEFT OUT OF THE BIGGEST #PENNYSTOCKS ALERT IN HISTORY !!  JOIN #TEAMCRYPTO ON MAY 1ST &amp; TURN UR $1,000 INVESTME\u2026
p123
aV2018-04-24 | RT @BIGMONEYMIKE6: DONT GET LEFT OUT OF THE BIGGEST #PENNYSTOCKS ALERT IN HISTORY !!  JOIN #TEAMCRYPTO ON MAY 1ST &amp; TURN UR $1,000 INVESTME\u2026
p124
aV2018-04-24 | $AAPL Apple don't have a clue what to do with their cash, so they may as well give the whole lot to shareholders in a special dividend.
p125
aV2018-04-24 | RT @Sandro_power: I explain an $AAPL update with some key facts   https://t.co/UWZhxJFRTx
p126
aV2018-04-24 | $AAPL fell for a 4th day, -1.4% at $162.94, notably under the 200dma. Big support, red zone 158/56s. https://t.co/MU42eVteT7
p127
aV2018-04-24 | Ouch.   $GOOGL $FB $JPM $C $BAC $WFC $AAPL $PM $PG $GE $HON $JNJ $CSCO $MSFT $INTC $TWTR $TSLA $V $DIS $UNH $VZ\u2026 https://t.co/KZhHoQGk3e
p128
aV2018-04-24 | apple long $AAPL https://t.co/uKb5A2cfiN
p129
aV2018-04-24 | Apple's Tim Cook is attending state dinner  #Apple $AAPL https://t.co/qzPk4taeNL
p130
aV2018-04-24 | RT @BIGMONEYMIKE6: DONT GET LEFT OUT OF THE BIGGEST #PENNYSTOCKS ALERT IN HISTORY !!  JOIN #TEAMCRYPTO ON MAY 1ST &amp; TURN UR $1,000 INVESTME\u2026
p131
aV2018-04-24 | ACTIVE TRADERS Try one of these FREE trading guides:  https://t.co/JbIZmzYL6E  $NFLX $TSLA $AAPL $TWTR $GS $FB $AMZN $GOOGL $NVDA
p132
aV2018-04-24 | Free Crypto Trading! Sign up with Robinhood and get a stock like $AAPL, $ROKU, or $BABA for FREE! Make sure to foll\u2026 https://t.co/y9rQi2FxAC
p133
aV2018-04-24 | RT @BIGMONEYMIKE6: DONT GET LEFT OUT OF THE BIGGEST #PENNYSTOCKS ALERT IN HISTORY !!  JOIN #TEAMCRYPTO ON MAY 1ST &amp; TURN UR $1,000 INVESTME\u2026
p134
aV2018-04-24 | RT @Convertbond: Below the 200 Day Moving Average   Facebook $FB Apple $AAPL Google $GOOGL
p135
aV2018-04-24 | RT @BIGMONEYMIKE6: DONT GET LEFT OUT OF THE BIGGEST #PENNYSTOCKS ALERT IN HISTORY !!  JOIN #TEAMCRYPTO ON MAY 1ST &amp; TURN UR $1,000 INVESTME\u2026
p136
aV2018-04-24 | RT @BIGMONEYMIKE6: DONT GET LEFT OUT OF THE BIGGEST #PENNYSTOCKS ALERT IN HISTORY !!  JOIN #TEAMCRYPTO ON MAY 1ST &amp; TURN UR $1,000 INVESTME\u2026
p137
aV2018-04-24 | GET STARTED! TALK STOCKS IN OUR GOAL ORIENTED CHAT ROOM AT https://t.co/35LuLR0k4f $AAPL $TSLA $BTSC
p138
aV2018-04-24 | Most Active Options: $AAPL $BAC $FB $MU $NFLX $FCX $BABA $CAT $TWTR $MSFT $GE $AMD $INTC $GOOGL $NVDA $JD $AMZN
p139
aV2018-04-24 | RT @WarrenBuffetHQ: Remaining humble, patient, accepting and responsive will bring you vast rewards  $MYMX The Best Stock Investment For 20\u2026
p140
aV2018-04-24 | RT @BIGMONEYMIKE6: DONT GET LEFT OUT OF THE BIGGEST #PENNYSTOCKS ALERT IN HISTORY !!  JOIN #TEAMCRYPTO ON MAY 1ST &amp; TURN UR $1,000 INVESTME\u2026
p141
aV2018-04-24 | RT @LMT978: Some important names below their 200sma $BABA $AAPL $GOOGL $AMAT - not necessarily the end of the world, but a sign of weakness,
p142
aV2018-04-24 | Review: Philips Hue Wellner is a HomeKit table lamp with a fun design, but color costs extra\u2026 https://t.co/TtQtGVWDHk
p143
aV2018-04-24 | RT @Sandro_power: I explain an $AAPL update with some key facts   https://t.co/UWZhxJFRTx
p144
aV2018-04-24 | RT @BIGMONEYMIKE6: DONT GET LEFT OUT OF THE BIGGEST #PENNYSTOCKS ALERT IN HISTORY !!  JOIN #TEAMCRYPTO ON MAY 1ST &amp; TURN UR $1,000 INVESTME\u2026
p145
aV2018-04-24 | RT @BIGMONEYMIKE6: DONT GET LEFT OUT OF THE BIGGEST #PENNYSTOCKS ALERT IN HISTORY !!  JOIN #TEAMCRYPTO ON MAY 1ST &amp; TURN UR $1,000 INVESTME\u2026
p146
aV2018-04-24 | RT @BIGMONEYMIKE6: DONT GET LEFT OUT OF THE BIGGEST #PENNYSTOCKS ALERT IN HISTORY !!  JOIN #TEAMCRYPTO ON MAY 1ST &amp; TURN UR $1,000 INVESTME\u2026
p147
aV2018-04-24 | RT @WallStJesus: \U0001f525TUESDAY'S ACTIVE LINES: $AAPL $FB $NFLX $TSLA $GOOGL $BABA $MU $AMD $TWTR $APC $BAC   https://t.co/vLVQvzzBsQ https://t.c\u2026
p148
aV2018-04-24 | RT @WallStJesus: \U0001f525TUESDAY'S ACTIVE LINES: $AAPL $FB $NFLX $TSLA $GOOGL $BABA $MU $AMD $TWTR $APC $BAC   https://t.co/vLVQvzzBsQ https://t.c\u2026
p149
aV2018-04-24 | RT @BIGMONEYMIKE6: DONT GET LEFT OUT OF THE BIGGEST #PENNYSTOCKS ALERT IN HISTORY !!  JOIN #TEAMCRYPTO ON MAY 1ST &amp; TURN UR $1,000 INVESTME\u2026
p150
aV2018-04-24 | RT @Convertbond: Below the 200 Day Moving Average   Facebook $FB Apple $AAPL Google $GOOGL
p151
aV2018-04-24 | RT @BIGMONEYMIKE6: DONT GET LEFT OUT OF THE BIGGEST #PENNYSTOCKS ALERT IN HISTORY !!  JOIN #TEAMCRYPTO ON MAY 1ST &amp; TURN UR $1,000 INVESTME\u2026
p152
aV2018-04-24 | Hey funny buddies @GerberKawasaki @JorelLaraKalel @JeffMacke @petenajarian when it comes to the RISE of\u2026 https://t.co/GrlIZLeJ7p
p153
aV2018-04-24 | RT @IntegerInvest: International business updates $AAPL $CAT $GOOGL $KO $DJIA $SPY $NDX https://t.co/lwLD49kPQB https://t.co/Tbg2sxjW2K
p154
aV2018-04-24 | Free Crypto Trading! Join Robinhood and get a stock like $AAPL, $MU, or $VZ for FREE! Make sure to follow this link\u2026 https://t.co/ThUOiUvHzv
p155
aV2018-04-24 | $MC $AAPL Tim Cook Is Among Guests at Trumps First State Dinner via https://t.co/jURZDyEqPg
p156
aV2018-04-24 | International business updates $AAPL $CAT $GOOGL $KO $DJIA $SPY $NDX https://t.co/lwLD49kPQB https://t.co/Tbg2sxjW2K
p157
aV2018-04-24 | International business news $AAPL $CAT $GOOGL $KO $DJIA $SPY $NDX  https://t.co/lwLD49kPQB
p158
aV2018-04-24 | RT @BIGMONEYMIKE6: DONT GET LEFT OUT OF THE BIGGEST #PENNYSTOCKS ALERT IN HISTORY !!  JOIN #TEAMCRYPTO ON MAY 1ST &amp; TURN UR $1,000 INVESTME\u2026
p159
aV2018-04-24 | Join @RobinhoodApp and we'll both get a stock like $AAPL, $F, or $S for free. Make sure to use my link.  https://t.co/tRZJE8Hs1r
p160
aV2018-04-24 | RT @BIGMONEYMIKE6: DONT GET LEFT OUT OF THE BIGGEST #PENNYSTOCKS ALERT IN HISTORY !!  JOIN #TEAMCRYPTO ON MAY 1ST &amp; TURN UR $1,000 INVESTME\u2026
p161
aV2018-04-24 | RT @CryptoMomoTrade: $UITA $CELZ \U0001f448 $MEDH $ELRA $NVCN $BRKK Market Buzz Leaders This PM $COFI $TRIG $TRON $SARA $KICK $PURA $SING $BCAP $DIR\u2026
p162
aV2018-04-24 | RT @BIGMONEYMIKE6: DONT GET LEFT OUT OF THE BIGGEST #PENNYSTOCKS ALERT IN HISTORY !!  JOIN #TEAMCRYPTO ON MAY 1ST &amp; TURN UR $1,000 INVESTME\u2026
p163
aV2018-04-24 | RT @BIGMONEYMIKE6: DONT GET LEFT OUT OF THE BIGGEST #PENNYSTOCKS ALERT IN HISTORY !!  JOIN #TEAMCRYPTO ON MAY 1ST &amp; TURN UR $1,000 INVESTME\u2026
p164
aV2018-04-24 | Who At $Googl $FB $TWTR Or Elsewhere is Watching Your Online Trading Without You Knowing? $fb $googl $twtr $aapl\u2026 https://t.co/YEFeorLwUH
p165
aV2018-04-24 | RT @seeitmarket: S&amp;P 500 Weekly Outlook: Choppy Price Action To Continue - https://t.co/9RSHiCgRCI  $SPY $QQQ $AAPL $NFLX
p166
aV2018-04-24 | RT @CryptoMomoTrade: $UITA $CELZ \U0001f448 $MEDH $ELRA $NVCN $BRKK Market Buzz Leaders This PM $COFI $TRIG $TRON $SARA $KICK $PURA $SING $BCAP $DIR\u2026
p167
aV2018-04-24 | $UITA $CELZ \U0001f448 $MEDH $ELRA $NVCN $BRKK Market Buzz Leaders This PM $COFI $TRIG $TRON $SARA $KICK $PURA $SING $BCAP\u2026 https://t.co/0n4dNdqft7
p168
aV2018-04-24 | RT @BIGMONEYMIKE6: DONT GET LEFT OUT OF THE BIGGEST #PENNYSTOCKS ALERT IN HISTORY !!  JOIN #TEAMCRYPTO ON MAY 1ST &amp; TURN UR $1,000 INVESTME\u2026
p169
aV2018-04-24 | NASDAQ futures are up a whopping +1. That is like 200 points after the last 5 days :-) $aapl, $goog, $amzn, $nflx, $fb, $nvda
p170
aV2018-04-24 | Join @RobinhoodApp and we'll both get a stock like $AAPL, $F, or $S for free. Make sure to use my link.  https://t.co/K3mgcP0EHI
p171
aV2018-04-24 | RT @BertDohmen: #APPLE stock is often a leader for the market, up and down. We used this chart of $AAPL which was one reason we became caut\u2026
p172
aV2018-04-24 | RT @Sandro_power: I explain an $AAPL update with some key facts   https://t.co/UWZhxJFRTx
p173
aV2018-04-24 | Master &amp; Dynamic introduces new $69 Lightning to 3.5mm headphone cable https://t.co/mzrfTrhVOL $AAPL https://t.co/EzsYaiRHaa
p174
aV2018-04-24 | Huge \U0001f4b0 from this #live #alert on $CERC \u2757\ufe0f  Want  more \u26a0\ufe0f just like this one?   Check out https://t.co/Lo3BFcJ6S3 fo\u2026 https://t.co/s1zzUjr5A4
p175
aV2018-04-24 | Who is Taking &amp; Using Your Online Private Data and Front Running Your Trades or Trading Against You? I Believe I Lo\u2026 https://t.co/e0ZWUCua2n
p176
aV2018-04-24 | RT @BIGMONEYMIKE6: DONT GET LEFT OUT OF THE BIGGEST #PENNYSTOCKS ALERT IN HISTORY !!  JOIN #TEAMCRYPTO ON MAY 1ST &amp; TURN UR $1,000 INVESTME\u2026
p177
aV2018-04-24 | RT @BIGMONEYMIKE6: DONT GET LEFT OUT OF THE BIGGEST #PENNYSTOCKS ALERT IN HISTORY !!  JOIN #TEAMCRYPTO ON MAY 1ST &amp; TURN UR $1,000 INVESTME\u2026
p178
aV2018-04-24 | RT @BIGMONEYMIKE6: DONT GET LEFT OUT OF THE BIGGEST #PENNYSTOCKS ALERT IN HISTORY !!  JOIN #TEAMCRYPTO ON MAY 1ST &amp; TURN UR $1,000 INVESTME\u2026
p179
aV2018-04-24 | $AAPL daily and weekly https://t.co/TtCU4wTeY4
p180
aV2018-04-24 | Join @RobinhoodApp and we'll both get a stock like $AAPL, $F, or $S for free. Make sure to use my link.  https://t.co/NWtuN5NjZG
p181
aV2018-04-24 | RT @WarrenBuffetHQ: You need to divorce your mind from the crowd. The herd mentality causes all these IQ\u2019s to become paralyzed  $MYMX The B\u2026
p182
aV2018-04-24 | RT @chrisbrecher: $AAPL Where AAPL goes everything else follows. https://t.co/rKscn5atTn
p183
asI2
(lp184
V2018-04-23 | RT @Sandro_power: $AAPL so what do you think Big Picture Expert?    https://t.co/WIql1UZ4jJ  I explain some key facts
p185
aV2018-04-23 | 4 Straight - Market Update by Vince Vora for April 23rd, 2018 $NFLX $FB $AMZN $IBM $AAPL $MU $NVDA $GOOGL https://t.co/5p09l5OXAn
p186
aV2018-04-23 | #Skyler Morgan for the follow #CLOUDUNLOCK Check Out #Apple #iCloud #iPhone $AAPL for #unlock #code https://t.co/sFE120Bm7R
p187
aV2018-04-23 | Call Volume: $AMD $FOLD $AMRN $CPB $DISH $NCR $QCOM $BOX $EBAY $ETN $PG $CNXM $DLTR $NFX $RUN $EA $AAPL $AAXN $MU
p188
aV2018-04-23 | Most Active Options: $AAPL $MU $BAC $AMD $FB $GE $NFLX $MSFT $T $BABA $SIRI $NVDA $TSLA $INTC $TWTR $AMZN $GOOGL $FCX $JPM
p189
aV2018-04-23 | @AmyAtrade Was thinking the weight on tech with $AAPL and others probably not helping. Let\u2019s see what $AMZN can pull off.
p190
aV2018-04-23 | RT @crabbermike: $FUSZ #Gamechanger WATCH https://t.co/uloVic1RMU #CRM #SALES #TECH #TECHSTOCKS #DigitalMarketing #DigitalAdvertising #Sale\u2026
p191
aV2018-04-23 | RT @PlanetZiggurat: \U0001f680\U0001f525Roadmap , Token trade time https://t.co/VOEUjnISk5  \U0001f680\U0001f525  #bitcoin #ZigguratICO #blockchain #crypto #ico #trading #ethe\u2026
p192
aV2018-04-23 | RT @PlanetZiggurat: \U0001f680\U0001f525Roadmap , Token trade time https://t.co/VOEUjnISk5  \U0001f680\U0001f525  #bitcoin #ZigguratICO #blockchain #crypto #ico #trading #ethe\u2026
p193
aV2018-04-23 | @MacHashNews This report is from a "research firm" that has 2 employees and a website that looks like a 4th grader\u2026 https://t.co/xEOoAHq8Ue
p194
aV2018-04-23 | Dow Down 14 $AAPL $AMZN $GOOGL $FB $TWTR $BTC.X $OSTK $SQ https://t.co/CBNcUN545T
p195
aV2018-04-23 | RT @KelvinCityIndex: Latest weekly tech outlook on major stock indices is out! Push up scenario in $SPX still holds despite last week slide\u2026
p196
aV2018-04-23 | RT @PlanetZiggurat: \U0001f680\U0001f525Roadmap , Token trade time https://t.co/VOEUjnISk5  \U0001f680\U0001f525  #bitcoin #ZigguratICO #blockchain #crypto #ico #trading #ethe\u2026
p197
aV2018-04-23 | Report: iPhone X demand slows as iPhone 8 and 8 Plus mix climbs in March quarter https://t.co/ZL1sq4M9Ob $AAPL https://t.co/MmR7BkjkXV
p198
aV2018-04-23 | ACTIVE TRADERS Try one of these FREE trading guides:  https://t.co/6UpPWBMP91  $NFLX $TSLA $AAPL $TWTR $GS $FB $AMZN $GOOGL $NVDA
p199
aV2018-04-23 | RT @PlanetZiggurat: \U0001f680\U0001f525Roadmap , Token trade time https://t.co/VOEUjnISk5  \U0001f680\U0001f525  #bitcoin #ZigguratICO #blockchain #crypto #ico #trading #ethe\u2026
p200
aV2018-04-23 | RT @PlanetZiggurat: \U0001f680\U0001f525Roadmap , Token trade time https://t.co/VOEUjnISk5  \U0001f680\U0001f525  #bitcoin #ZigguratICO #blockchain #crypto #ico #trading #ethe\u2026
p201
aV2018-04-23 | RT @IBD_DChung: New In Investor's Corner: While February, March, and now April have been choppy times for #stocks, the follow-through still\u2026
p202
aV2018-04-23 | RT @PlanetZiggurat: \U0001f680\U0001f525Roadmap , Token trade time https://t.co/VOEUjnISk5  \U0001f680\U0001f525  #bitcoin #ZigguratICO #blockchain #crypto #ico #trading #ethe\u2026
p203
aV2018-04-23 | RT @PlanetZiggurat: \U0001f680\U0001f525Roadmap , Token trade time https://t.co/VOEUjnISk5  \U0001f680\U0001f525  #bitcoin #ZigguratICO #blockchain #crypto #ico #trading #ethe\u2026
p204
aV2018-04-23 | Apple, Nike and Starbucks Will Be the Biggest Victims of Trump's China Tariffs via @forbes $AAPL $SBUX $NKE https://t.co/0iRNiwVxDE
p205
aV2018-04-23 | RT @DayTradersGroup: \U0001f50aOur $amzn 1580 Call options now +403% - Yeeeeeaaahhhh   A test of March highs on deck?   -  Highest options vol on $S\u2026
p206
aV2018-04-23 | Apple $AAPL Expected to Announce Quarterly Sales of $61.33 Billion https://t.co/h6a9HVKUvh
p207
aV2018-04-23 | Zacks: Brokerages Expect Apple $AAPL to Post $2.69 Earnings Per Share https://t.co/rf2zHvP8Sb
p208
aV2018-04-23 | Price Returns vs Expected Daily Move $F $NKE $GM $PEP $HOG $AAPL $PM $KHC $PG $MO $CL $TSLA https://t.co/T6y5z4l70A
p209
aV2018-04-23 | Zacks: Brokerages Anticipate Apple $AAPL Will Announce Earnings of $2.69 Per Share https://t.co/qbSjwxKCGr
p210
aV2018-04-23 | RT @canuck2usa: $AAPL # Momma weekly call bounce play after some stop hunting
p211
aV2018-04-23 | @vrajd_ @levie @BoxHQ @chamath Not at all. @Carl_C_Icahn moved $AAPL by few times the entire mkt cap of $BOX with j\u2026 https://t.co/RRHkWO2Anc
p212
aV2018-04-23 | Sitting in the red box patiently waiting $aapl https://t.co/58ebo4a7f0
p213
aV2018-04-23 | Remodeling set to begin in May at Apple's Palo Alto store, less than 6 years after opening https://t.co/vgDLhcYWnU\u2026 https://t.co/a71U1DTaAr
p214
aV2018-04-23 | RT @WarrenBuffetHQ: Honesty is a very expensive gift, don\u2019t expect it from cheap people  $MYMX The Best Stock Investment For 2018 HIV Vacci\u2026
p215
aV2018-04-23 | RT @PlanetZiggurat: \U0001f680\U0001f525Roadmap , Token trade time https://t.co/VOEUjnISk5  \U0001f680\U0001f525  #bitcoin #ZigguratICO #blockchain #crypto #ico #trading #ethe\u2026
p216
aV2018-04-23 | RT @PlanetZiggurat: \U0001f680\U0001f525Roadmap , Token trade time https://t.co/VOEUjnISk5  \U0001f680\U0001f525  #bitcoin #ZigguratICO #blockchain #crypto #ico #trading #ethe\u2026
p217
aV2018-04-23 | RT @PlanetZiggurat: \U0001f680\U0001f525Roadmap , Token trade time https://t.co/VOEUjnISk5  \U0001f680\U0001f525  #bitcoin #ZigguratICO #blockchain #crypto #ico #trading #ethe\u2026
p218
aV2018-04-23 | why do imessage replies from other people sometimes appear on top of the last message i sent even though they sent\u2026 https://t.co/9pF0GBwoSy
p219
aV2018-04-23 | Huge \U0001f4b0 from this #live #alert on $CERC \u2757\ufe0f  Want  more \u26a0\ufe0f just like this one?   Check out https://t.co/Lo3BFcJ6S3 fo\u2026 https://t.co/PAufWNc2np
p220
aV2018-04-23 | RT @WarrenBuffetHQ: What the wise do in the beginning, fools do in the end  $MYMX The Best Stock Investment For 2018 HIV Vaccine 100% Effec\u2026
p221
aV2018-04-23 | Recent Study Shows 97 Percent Satisfaction Rate for iPhone X Early Adopters https://t.co/ezbmV2MJ9W $AAPL https://t.co/bxz7IbCAl5
p222
aV2018-04-23 | So, if they are buying VERY BULLISH shares? It best to buy Puts. If they are buying VERY Bearish shares? It is best\u2026 https://t.co/bqfespKTZu
p223
aV2018-04-23 | RT @Sandro_power: $AAPL so what do you think Big Picture Expert?    https://t.co/WIql1UZ4jJ  I explain some key facts
p224
aV2018-04-23 | RT @IBD_DChung: New In Investor's Corner: While February, March, and now April have been choppy times for #stocks, the follow-through still\u2026
p225
aV2018-04-23 | $AAPL settled -0.3% at $165.24, managing to at least close above the 200dma. Earnings (May 1st) can't come soon eno\u2026 https://t.co/CAqdwp4te6
p226
aV2018-04-23 | Today is Apr 23 and $AAPL LOW was $164.09. Now look at when I seen them buying $164.18. After they bought those sha\u2026 https://t.co/SesSHGK0Ql
p227
aV2018-04-23 | Join @RobinhoodApp and we'll both get a stock like $AAPL, $F, or $S for free. Make sure to use my link.  https://t.co/GzdoDAonv8
p228
aV2018-04-23 | $SPY +50% &amp; $AAPL +220% - 4-23-18 Simply Derivative- Daily Recap: https://t.co/AjTVcRdCsa via @YouTube
p229
aV2018-04-23 | GE now shipping first Siri-controlled window air conditioner, works with HomeKit and Amazon Alexa\u2026 https://t.co/Q7wYnIyd1g
p230
aV2018-04-23 | RT @WarrenBuffetHQ: Look for investments that are easy to understand  $MYMX The Best Stock Investment For 2018 HIV Vaccine 100% Effective,\u2026
p231
aV2018-04-23 | RT @WarrenBuffetHQ: I don\u2019t look to jump over 7-foot bars: I look around for 1-foot bars that I can step over  $MYMX The Best Stock Investm\u2026
p232
aV2018-04-23 | Range mixed day $GOOGL $FB $JPM $C $BAC $WFC $AAPL $PM $PG $GE $HON $JNJ $CSCO $MSFT $INTC $TWTR $TSLA $V $DIS $UNH\u2026 https://t.co/YymVFtdpK8
p233
aV2018-04-23 | #trading #Emotions #psychological #futures $spx $nasdaq $es_f $nq_f $cl_f $GC_f $XOM $amzn $googl $AVGO $AAPL $WFM\u2026 https://t.co/xs3iYuivpV
p234
aV2018-04-23 | New In Investor's Corner: While February, March, and now April have been choppy times for #stocks, the follow-throu\u2026 https://t.co/YB02wLbxDe
p235
aV2018-04-23 | RT @PlanetZiggurat: \U0001f680\U0001f525Roadmap , Token trade time https://t.co/VOEUjnISk5  \U0001f680\U0001f525  #bitcoin #ZigguratICO #blockchain #crypto #ico #trading #ethe\u2026
p236
aV2018-04-23 | RT @marketminute: Mish\u2019s Daily: Can Apple Bring the Market to One Love? $AAPL $QQQ $IYT $IWM https://t.co/FK4xl491bF https://t.co/0hj1DynJCn
p237
aV2018-04-23 | RT @PlanetZiggurat: List your token on our  https://t.co/VOEUjnISk5       $AAPL $SIRI $SBUX $CSCO $INTC $HEAR $CLDC $AUTO $ACER $RIOT $QCOM\u2026
p238
aV2018-04-23 | RT @PlanetZiggurat: \U0001f680\U0001f525Roadmap , Token trade time https://t.co/VOEUjnISk5 \U0001f680\U0001f525  #bitcoin #ZigguratICO #blockchain #crypto #ico #trading #ether\u2026
p239
aV2018-04-23 | RT @PlanetZiggurat: \U0001f680\U0001f525Roadmap , Token trade time https://t.co/VOEUjnISk5  \U0001f680\U0001f525  #bitcoin #ZigguratICO #blockchain #crypto #ico #trading #ethe\u2026
p240
aV2018-04-23 | ACTIVE TRADERS Try one of these FREE trading guides:  https://t.co/Yf9JKPDBKy  $NFLX $TSLA $AAPL $IBB $GS $FB $AMZN $GOOGL $NVDA
p241
aV2018-04-23 | RT @option_dtgroup: APR 23 MOST ACTIVE OPTIONS  $AAPL $MU $BAC $AMD $FB $GE $NFLX $MSFT $T $BABA $SIRI $NVDA $TSLA $INTC $TWTR $AMZN $GOOGL\u2026
p242
aV2018-04-23 | iOS 12 May Be Coming to Your iPhone 5s https://t.co/YfhhTBo5io $AAPL https://t.co/Lp6lyUJYRh
p243
aV2018-04-23 | $AAPL $158 - $154 area If reached will provide at least 3 waves bounce from there #Elliottwave $QQQ
p244
aV2018-04-23 | RT @todd_harrison: A look at the FANG index; that's some synergy.  $FB $AMZN $AAPL $NFLX $GOOGL https://t.co/BOYm5RwtvG
p245
aV2018-04-23 | $XSP $RIG $AMD $SC $GE $DAL $NOK $BAC $EGO $VMW $AAPL $BABA $GM $CY $JD $SIRI $IBN $SYMC $WFC $JCP Largest PUT OI i\u2026 https://t.co/kyYgV5K4mM
p246
aV2018-04-23 | RT @DayTradersGroup: \U0001f50aOur $amzn 1580 Call options now +403% - Yeeeeeaaahhhh   A test of March highs on deck?   -  Highest options vol on $S\u2026
p247
aV2018-04-23 | RT @UnlockFusion: #Instant #Apple Unlocking $0.99 Cent All #iPhone FOR 3GS 4 4S 5 5C 5S 6 6+ #unlockfusion #icloud #freeunlock #factoryunlo\u2026
p248
aV2018-04-23 | #Instant #Apple Unlocking $0.99 Cent All #iPhone FOR 3GS 4 4S 5 5C 5S 6 6+ #unlockfusion #icloud #freeunlock #factoryunlock $AAPL #unlock
p249
aV2018-04-23 | $BX $GE $ERIC $KKR $AMD $SNAP $SC $ILG $BAC $AAPL $GE $TEVA $AA $GE $BABA $BHGE $MA $ILG $CLF $QCOM $LBRDK $VRX Lar\u2026 https://t.co/60qYrNRODt
p250
aV2018-04-23 | RT @1MinuteStock: Explore #fundamental numbers and pros and cons for $AAPL https://t.co/f3o3nkD8II
p251
aV2018-04-23 | RT @LaMonicaBuzz: 3 cheers for FAANG? $GOOGL/$GOOG joins $NFLX with strong earnings. All of the FAANGS up after hours. $FB $AMZN $AAPL $NFL\u2026
p252
aV2018-04-23 | RT @StockTwits: $AAPL bulls: The best tech company ever! $285 billion in cash! 16 P/E ratio!  $AAPL bears: You just paid $165/share for thi\u2026
p253
aV2018-04-23 | RT @PlanetZiggurat: \U0001f680\U0001f525Roadmap , Token trade time https://t.co/VOEUjnISk5  \U0001f680\U0001f525  #bitcoin #ZigguratICO #blockchain #crypto #ico #trading #ethe\u2026
p254
aV2018-04-23 | RT @realsheepwolf: \U0001f449 $CELZ \U0001f448ABSOLUTELY HUGE OPPORTUNITY TO GET IN ON THE GROUND FLOOR \U0001f3c6CEO JUST BOUGHT 10M SHARES AT .0138 \U0001f3c6CO. PRESENTING\u2026
p255
aV2018-04-23 | Buy last year's 9.7-inch iPad at Walmart for 25% off https://t.co/fLylaZjLyE $AAPL https://t.co/zTqF7i2V5b
p256
aV2018-04-23 | RT @marketminute: Mish\u2019s Daily: Can Apple Bring the Market to One Love? $AAPL $QQQ $IYT $IWM https://t.co/FK4xl491bF https://t.co/0hj1DynJCn
p257
aV2018-04-23 | RT @BrennaMarie22_: Join @RobinhoodApp and we'll both get a stock like $AAPL, $F, or $S for free. Make sure to use my link.  https://t.co/e\u2026
p258
aV2018-04-23 | RT @crabbermike: $FUSZ #Gamechanger WATCH https://t.co/uloVic1RMU #CRM #SALES #TECH #TECHSTOCKS #DigitalMarketing #DigitalAdvertising #Sale\u2026
p259
aV2018-04-23 | RT @DayTradersGroup: \U0001f50aOur $amzn 1580 Call options now +403% - Yeeeeeaaahhhh   A test of March highs on deck?   -  Highest options vol on $S\u2026
p260
aV2018-04-23 | RT @PlanetZiggurat: \U0001f680\U0001f525Roadmap , Token trade time https://t.co/VOEUjnISk5  \U0001f680\U0001f525  #bitcoin #ZigguratICO #blockchain #crypto #ico #trading #ethe\u2026
p261
aV2018-04-23 | $AAPL and $SMH both closing below 200SMA. Just an observation. All major US indexes trading above atm.
p262
aV2018-04-23 | Huge \U0001f4b0 from this #live #alert on $SNAP \u2757\ufe0f  Want  more \u26a0\ufe0f just like this one?   Check out https://t.co/Lo3BFcJ6S3 fo\u2026 https://t.co/EKGSf5Tbjm
p263
aV2018-04-23 | Huge \U0001f4b0 from this #live #alert on $SPY Puts \u2757\ufe0f  Want  more \u26a0\ufe0f just like this one?   Check out\u2026 https://t.co/X2JLsQ0nlb
p264
aV2018-04-23 | RT @ElixiumCrypto: Register Now &amp; go Long\U0001f4c8 or Short\U0001f4c9 on #Tech #Stocks!  1 - 100x Leverage \u2705  \u25b6\ufe0f https://t.co/ls0bX6Bj2u \u25c0\ufe0f  Use #Bitcoin to\u2026
p265
aV2018-04-23 | RT @finzine: $GE $AAPL Fly Charts: Apple's Changing Business and Trump's OPEC Spat via https://t.co/jURZDymPXI
p266
aV2018-04-23 | RT @SJosephBurns: $AAPL finding support at the 200 day so far today.
p267
aV2018-04-23 | RT @michaelsantoli: With Apple now 10% off its high, it's probably some consolation to investors that $AAPL is not and has never been a goo\u2026
p268
aV2018-04-23 | RT @PlanetZiggurat: \U0001f680\U0001f525Roadmap , Token trade time https://t.co/VOEUjnISk5  \U0001f680\U0001f525  #bitcoin #ZigguratICO #blockchain #crypto #ico #trading #ethe\u2026
p269
aV2018-04-23 | Here's My Trade Plan for Tomorrow. $SPY $AAPL $GOOGL $NFLX https://t.co/PZbtDu7oq8 https://t.co/TZzMfhZb0y
p270
aV2018-04-23 | RT @ElliottForecast: $AAPL Is close to breaking 163.5 low which will open more downside toward $158 - $154 #Elliottwave $QQQ
p271
aV2018-04-23 | Down: -3.1% $DBB -1.3% $SOXX $GDX $EWZ -1% $FXY $XBI  -0.8% $EEM $GLD $IGOV -0.6% $FXE -0.4% $FDN $EWG $XLK  -0.3% $DBA $JNK $AAPL $XLB
p272
aV2018-04-23 | RT @StockRatingsHQ: Tuesday, April 24th 2018 - New Buy, Sell or Hold Ratings Issued For:  $DSGT $FDFT $FLSR $ANDI $RNVA $BVTK $PFWI $MSPC $\u2026
p273
aV2018-04-23 | RT @JReed193: Apple shares are falling as new @cirpllc report out today shows slowing iPhone X demand - the model saw its share of iPhone s\u2026
p274
aV2018-04-23 | RT @ETFGodfather: Broad Market Exposure On The Cheap With This iShares ETF https://t.co/IFsbJjVwjs $AAPL $AMZN $ITOT  via @benzinga
p275
aV2018-04-23 | RT @dexoidan: $AAPL Todays trading with Apple Inc for $165.24 on date 2018-04-23. #Finance #Stocks
p276
aV2018-04-23 | $AAPL Found sellers last week around blue box area $177 then traded lower from there #Elliottwave https://t.co/Z6r2XmrBlO
p277
aV2018-04-23 | RT @SharePlanner: $AAPL dragging this market lower
p278
aV2018-04-23 | RT @DayTradersGroup: \U0001f50aOur $amzn 1580 Call options now +403% - Yeeeeeaaahhhh   A test of March highs on deck?   -  Highest options vol on $S\u2026
p279
aV2018-04-23 | RT @LaMonicaBuzz: 3 cheers for FAANG? $GOOGL/$GOOG joins $NFLX with strong earnings. All of the FAANGS up after hours. $FB $AMZN $AAPL $NFL\u2026
p280
aV2018-04-23 | $FUSZ #Gamechanger WATCH https://t.co/uloVic1RMU #CRM #SALES #TECH #TECHSTOCKS #DigitalMarketing\u2026 https://t.co/IiyTYe2vlH
p281
aV2018-04-23 | $AAPL Is close to breaking 163.5 low which will open more downside toward $158 - $154 #Elliottwave $QQQ
p282
aV2018-04-23 | Review: ONE Smart Keyboard Pro uses a Lightning cable and iPad integration to unlock its full potential\u2026 https://t.co/Ljr6b1FVmV
p283
asI3
(lp284
V2018-04-22 | RT @Sandro_power: $AAPL so what do you think Big Picture Expert?    https://t.co/WIql1UZ4jJ  I explain some key facts
p285
aV2018-04-22 | RT @Sandro_power: $AAPL so what do you think Big Picture Expert?    https://t.co/WIql1UZ4jJ  I explain some key facts
p286
aV2018-04-22 | $AAPL so what do you think Big Picture Expert?    https://t.co/WIql1UZ4jJ  I explain some key facts
p287
aV2018-04-22 | RT @DayTradersGroup: \U0001f50aOur $amzn 1580 Call options now +403% - Yeeeeeaaahhhh   A test of March highs on deck?   -  Highest options vol on $S\u2026
p288
aV2018-04-22 | RT @WeeklyTop5Picks: https://t.co/Dfz8LPVrbG  Stock Picks for W/E 4.27.18 r Posted        #AI #MachineLearning #Algorithms #stockstowatch #\u2026
p289
aV2018-04-22 | https://t.co/Dfz8LPVrbG  Stock Picks for W/E 4.27.18 r Posted        #AI #MachineLearning #Algorithms\u2026 https://t.co/4FWvAMCbWt
p290
aV2018-04-22 | RT @RealDrGina: Join @RobinhoodApp and we'll both get a stock like $AAPL, $F, or $S for free!!! Enjoy!   https://t.co/kb93cZLRLY
p291
aV2018-04-22 | RT @permabear_uk: The core list  Tier 1: $INTC $BAC $X $MU $GILD Tier 2: $CSCO $JPM $AAPL $BABA $ABBV Tier 3: $NVDA $SCHW $DAL $APC $SCCO T\u2026
p292
aV2018-04-22 | $SVSA Did u C my alert on UNKNOWN $AURX run 1200% in 5days last month? $SVSA ALSO UNKNOWN INSIDERS OWN 76%!\U0001f4c8 $AAPL\u2026 https://t.co/AsxFfIrHnH
p293
aV2018-04-22 | RT @seeitmarket: [NEW]  Weekend Reading: "Walk, Don't Run" --&gt; https://t.co/amn3ZIUWMa  feat. @MarkArbeter @Pivotal_Pivots  $SPY $QQQ $SOXX\u2026
p294
aV2018-04-22 | RT @StockBoardAsset: US Treasury Yield Curve Is The Talk Of The Town https://t.co/iMDoVqZBA8 $AAPL $VIX
p295
aV2018-04-22 | RT @seeitmarket: NEW Article:  "S&amp;P 500 Weekly Outlook: Choppy Price Action To Continue" - https://t.co/YlsfiAZLc2  by @askSlim  $SPY $NFLX\u2026
p296
aV2018-04-22 | RT @seeitmarket: NEW Article:  "S&amp;P 500 Weekly Outlook: Choppy Price Action To Continue" - https://t.co/YlsfiAZLc2  by @askSlim  $SPY $NFLX\u2026
p297
aV2018-04-22 | \U0001f449 $CELZ \U0001f448ABSOLUTELY HUGE OPPORTUNITY TO GET IN ON THE GROUND FLOOR \U0001f3c6CEO JUST BOUGHT 10M SHARES AT .0138 \U0001f3c6CO. PRESEN\u2026 https://t.co/HcFvU3YyMg
p298
aV2018-04-22 | US Treasury Yield Curve Is The Talk Of The Town https://t.co/iMDoVqZBA8 $AAPL $VIX
p299
aV2018-04-22 | $SVSA would have 2 run almost 500% 2 get price months ago $RDUS $UTHR $PTLA $ALDR $OPK $GLPG $ARWR $ONCS $MTEM\u2026 https://t.co/kebSLfl3Oi
p300
aV2018-04-22 | RT @MattMargolis24: Smart glasses could kill smartphones in the next five years.  All the foundations are in place for glasses to replace p\u2026
p301
aV2018-04-22 | On The Fly: Top five weekend stock stories $VIA $VIAB $EPD $MMP $MPLX $PAA $GOOG $GOOGL $AMZN $FB $AAPL $MSFT $BIDU\u2026 https://t.co/UeAHnbLG14
p302
aV2018-04-22 | 1 Reason to Be Excited About Apple Inc.'s Upcoming Product Cycle @themotleyfool #stocks $AAPL https://t.co/lKsqOvsevP
p303
aV2018-04-22 | RT @RealDrGina: Join @RobinhoodApp and we'll both get a stock like $AAPL, $F, or $S for free!!! Enjoy!   https://t.co/kb93cZLRLY
p304
aV2018-04-22 | via jfahmy: WEEKEND MARKET VIDEO: 4/22/18 https://t.co/6SO2yfbNTF $SPY $QQQ $IWM $SMH $AAPL $FB $NFLX $fb
p305
aV2018-04-22 | WEEKEND MARKET VIDEO: 4/22/18 https://t.co/MafqY2ePQO $SPY $QQQ $IWM $SMH $AAPL $FB $NFLX
p306
aV2018-04-22 | Join @RobinhoodApp and we'll both get a stock like $AAPL, $F, or $S for free. Make sure to use my link.  https://t.co/2yotMJHWyD
p307
aV2018-04-22 | ACTIVE TRADERS Try one of these FREE trading guides:  https://t.co/cyw88CaD9n  $NFLX $TSLA $AAPL $TWTR $GS $FB $AMZN $GOOGL $NVDA
p308
aV2018-04-22 | RT @option_snipper: Stock performance comparisons. Very simple yet powerful demonstration about how names are doing. $nflx $twtr both stron\u2026
p309
aV2018-04-22 | RT @WarrenBuffetHQ: Rule No. 1: never lose money; rule No. 2: don\u2019t forget rule No. 1  $MYMX The Best Stock Investment For 2018 HIV Vaccine\u2026
p310
aV2018-04-22 | RT @crabbermike: $FUSZ Another Customer 4 @nFuszInc &amp; their Game changin Technology #notifiCRM https://t.co/2Vw5SHnZRk ENDLESS APPLICATIONS\u2026
p311
aV2018-04-22 | RT @seeitmarket: NEW Article:  "S&amp;P 500 Weekly Outlook: Choppy Price Action To Continue" - https://t.co/YlsfiAZLc2  by @askSlim  $SPY $NFLX\u2026
p312
aV2018-04-22 | Evening Most Tweeted Big Caps, check out Gambiste Top 10: $CDNS $ALXN $ASML $BIIB $AAPL $AVGO $AMZN $ADBE $GOOGL https://t.co/lYp5LtitVR
p313
aV2018-04-22 | NEW Article:  "S&amp;P 500 Weekly Outlook: Choppy Price Action To Continue" - https://t.co/YlsfiAZLc2  by @askSlim\u2026 https://t.co/0F7uQeV5Az
p314
aV2018-04-22 | RT @DayTradersGroup: \U0001f50aOur $amzn 1580 Call options now +403% - Yeeeeeaaahhhh   A test of March highs on deck?   -  Highest options vol on $S\u2026
p315
aV2018-04-22 | $AAPL ROADMAP headed into April W4. 164.5 then 160 next 2 targets/support depeding on how you look at it. Takeout a\u2026 https://t.co/9RzKtJX7oJ
p316
aV2018-04-22 | @KCTV5 Owning $aapl stock is a larger fine.
p317
aV2018-04-22 | RT @RealDrGina: Join @RobinhoodApp and we'll both get a stock like $AAPL, $F, or $S for free!!! Enjoy!   https://t.co/kb93cZLRLY
p318
aV2018-04-22 | Weekend video teaser . Solid action last week. Is trading beta directly correlated to move in futures ? Yes and no\u2026 https://t.co/95cet1FjWh
p319
aV2018-04-22 | Huge \U0001f4b0 from this #live #alert on $CERC \u2757\ufe0f  Want  more \u26a0\ufe0f just like this one?   Check out https://t.co/Lo3BFcJ6S3 fo\u2026 https://t.co/uuZtdVwlKO
p320
aV2018-04-22 | RT @RealDrGina: Join @RobinhoodApp and we'll both get a stock like $AAPL, $F, or $S for free!!! Enjoy!   https://t.co/kb93cZLRLY
p321
aV2018-04-22 | #estate asset watch - price / volume leaders Fri:  $AAPL $AMZN $GE $FB $MSFT $BABA $NVDA $NFLX $JPM $TSLA $SKX $BAC\u2026 https://t.co/YlyusgumSz
p322
aV2018-04-22 | RT @RealDrGina: Join @RobinhoodApp and we'll both get a stock like $AAPL, $F, or $S for free!!! Enjoy!   https://t.co/kb93cZLRLY
p323
aV2018-04-22 | RT @DayTradersGroup: \U0001f50aOur $amzn 1580 Call options now +403% - Yeeeeeaaahhhh   A test of March highs on deck?   -  Highest options vol on $S\u2026
p324
aV2018-04-22 | Join @RobinhoodApp and we'll both get a stock like $AAPL, $F, or $S for free!!! Enjoy!   https://t.co/kb93cZLRLY
p325
aV2018-04-22 | Report: Apple, device makers behind DOJ probe of telecom collusion $AAPL $T $VZ $S $TMUS https://t.co/YmjdtSobU9
p326
aV2018-04-22 | race to 1 trillion marketcap $FB $MSFT $GOOGL $AMZN $AAPL #earnings https://t.co/aXEbHKDH0k
p327
aV2018-04-22 | RT @realsheepwolf: \U0001f449 $FUSZ \U0001f448TIME TO THINK BIG\U0001f984SEIZE OPPORTUNITY AND LIVE BIG  $AAPL $INTC $CSCO $SIRI $SBUX $WMT $WFC $QCOM $MU $CRM $GE $O\u2026
p328
aV2018-04-22 | RT @seeitmarket: [NEW]  Weekend Reading For Investors: Walk Don't Run --&gt; https://t.co/amn3ZIUWMa  feat. @KimbleCharting @WillieDelwiche  $\u2026
p329
aV2018-04-22 | @madaznfootballr Disgusting slabs in diapers Lolz slab city $XRP $BTC $QQQ $SPY $AAPL cc: @Guruleaks1
p330
aV2018-04-22 | RT @ballstreet_: Pre Market NBA is quite! Come trade the game live as you watch tonight.   #CavsPacers #cavs #pacers #nba #NBAPlayoff #LeBr\u2026
p331
aV2018-04-22 | RT @ballstreet_: Pre Market NBA is quite! Come trade the game live as you watch tonight.   #CavsPacers #cavs #pacers #nba #NBAPlayoff #LeBr\u2026
p332
aV2018-04-22 | #AAPL $AAPL dropped heavily last week. Here is the #fractal chart for the next few weeks ahead. https://t.co/QPxgkK8Q8V
p333
aV2018-04-22 | Pre Market NBA is quite! Come trade the game live as you watch tonight.   #CavsPacers #cavs #pacers #nba\u2026 https://t.co/8o9w9RhQmc
p334
aV2018-04-22 | RT @WarrenBuffetHQ: There is no shame in seeking guidance in life  $MYMX The Best Stock Investment For 2018 HIV Vaccine 100% Effective, Ext\u2026
p335
aV2018-04-22 | Q1 2018 #earnings  9.2% higher revenues &amp; 87% beaiting #EPS and 57% Revenue beats  #tech $FB $AAPL $AMZN $GOOGL\u2026 https://t.co/grdE2haX1y
p336
aV2018-04-22 | RT @crabbermike: $FUSZ Another Customer 4 @nFuszInc &amp; their Game changin Technology #notifiCRM https://t.co/2Vw5SHnZRk ENDLESS APPLICATIONS\u2026
p337
aV2018-04-22 | RT @JustinPulitzer: \U0001f195 Weekend Review VIDEO 4/22: https://t.co/rTpegSHu4L  $SPY $IWM $QQQ $TLT $MUB $HYG $O $EQR $PG $CLX $PM $MO $XLF $JPM\u2026
p338
aV2018-04-22 | RT @DayTradersGroup: \U0001f50aOur $amzn 1580 Call options now +403% - Yeeeeeaaahhhh   A test of March highs on deck?   -  Highest options vol on $S\u2026
p339
aV2018-04-22 | $AAPL is active on the market, #trading at $165.72 (-4.10%)  Check out our #sentiment analysis tool free: https://t.co/GvMdw1aUkZ #investing
p340
aV2018-04-22 | Big buying in options land on Friday 4/20! SR = stock replacement  #trading  $AAPL $ERIC $TWTR $SAP $DVN $SGMS\u2026 https://t.co/iYf2iXFBnN
p341
aV2018-04-22 | ACTIVE TRADERS Try one of these FREE trading guides:  https://t.co/I0hrQXZ7q7  $NFLX $TSLA $AAPL $IBB $GS $FB $AMZN $GOOGL $NVDA
p342
aV2018-04-22 | RT @DayTradersGroup: \U0001f50aOur $amzn 1580 Call options now +403% - Yeeeeeaaahhhh   A test of March highs on deck?   -  Highest options vol on $S\u2026
p343
aV2018-04-22 | RT @realsheepwolf: \U0001f449 $FUSZ \U0001f448YOU DECIDE HOW YOU WANT TO LIVE\U0001f4b0CHOOSE WISELY \U0001f984YOU MISS $NFLX $WMT $FB $AAPL WHEN THEY WERE IN THEIR INFANCY \U0001f984\u2026
p344
aV2018-04-22 | RT @realsheepwolf: \U0001f449 $FUSZ \U0001f448YOU DECIDE HOW YOU WANT TO LIVE\U0001f4b0CHOOSE WISELY \U0001f984YOU MISS $NFLX $WMT $FB $AAPL WHEN THEY WERE IN THEIR INFANCY \U0001f984\u2026
p345
aV2018-04-22 | RT @DayTradersGroup: \U0001f50aOur $amzn 1580 Call options now +403% - Yeeeeeaaahhhh   A test of March highs on deck?   -  Highest options vol on $S\u2026
p346
aV2018-04-22 | RT @seeitmarket: [NEW]  Weekend Reading For Investors: Walk Don't Run --&gt; https://t.co/amn3ZIUWMa  feat. @KimbleCharting @WillieDelwiche  $\u2026
p347
aV2018-04-22 | Join @RobinhoodApp and we'll both get a stock like $AAPL, $F, or $S for free. Make sure to use my link.  https://t.co/0DPT3soGZj
p348
aV2018-04-22 | RT @StockRatingsHQ: Monday, April 23rd 2018 - New Buy, Sell or Hold Ratings Issued For: $DSGT $FDFT $FLSR $ANDI $RNVA $BVTK $PFWI $MSPC $NH\u2026
p349
aV2018-04-22 | RT @UnlockFusion: #Instant #Apple Unlocking $0.99 Cent All #iPhone FOR 3GS 4 4S 5 5C 5S 6 6+ #unlockfusion #icloud #freeunlock #factoryunlo\u2026
p350
aV2018-04-22 | RT @WarrenBuffetHQ: Thoughtful financial planning can easily take a backseat to daily life  $MYMX The Best Stock Investment For 2018 HIV Va\u2026
p351
aV2018-04-22 | If $AAPL holds up in pre-market we should be fine.  #ES_F green shoots.
p352
aV2018-04-22 | #Instant #Apple Unlocking $0.99 Cent All #iPhone FOR 3GS 4 4S 5 5C 5S 6 6+ #unlockfusion #icloud #freeunlock #factoryunlock $AAPL #unlock
p353
aV2018-04-22 | RT @DayTradersGroup: \U0001f50aOur $amzn 1580 Call options now +403% - Yeeeeeaaahhhh   A test of March highs on deck?   -  Highest options vol on $S\u2026
p354
aV2018-04-22 | @chrislhayes @Apple Grown "man" whining on $TWTR $aapl #Apple #Twitter
p355
aV2018-04-22 | RT @realsheepwolf: \U0001f449 $FUSZ \U0001f448 BIG WEEKS AHEAD\U0001f3c6MAJOR ANNOUNCEMENTS AND PRs \U0001f984nFUSZ now on Oracle website  https://t.co/orvynPuWRB \U0001f984#SuiteWorld\u2026
p356
aV2018-04-22 | RT @realsheepwolf: \U0001f449 $FUSZ \U0001f448YOU DECIDE HOW YOU WANT TO LIVE\U0001f4b0CHOOSE WISELY \U0001f984YOU MISS $NFLX $WMT $FB $AAPL WHEN THEY WERE IN THEIR INFANCY \U0001f984\u2026
p357
aV2018-04-22 | RT @realsheepwolf: \U0001f449 $FUSZ \U0001f448EVER RIDE A #UNICORN\U0001f984 #WEALTHBUILDER \U0001f984FREE $FUSZ DD HERE: https://t.co/LILUBYJhI3  $SNAP $ORCL $EBAY $YNDX $QCO\u2026
p358
aV2018-04-22 | RT @realsheepwolf: \U0001f449 $FUSZ \U0001f448TIME TO THINK BIG\U0001f984SEIZE OPPORTUNITY AND LIVE BIG  $AAPL $INTC $CSCO $SIRI $SBUX $WMT $WFC $QCOM $MU $CRM $GE $O\u2026
p359
aV2018-04-22 | RT @seeitmarket: [NEW]  Weekend Reading For Investors: Walk Don't Run --&gt; https://t.co/amn3ZIUWMa  feat. @KimbleCharting @WillieDelwiche  $\u2026
p360
aV2018-04-22 | RT @realsheepwolf: \U0001f449 $FUSZ \U0001f448TIME TO THINK BIG\U0001f984SEIZE OPPORTUNITY AND LIVE BIG  $AAPL $INTC $CSCO $SIRI $SBUX $WMT $WFC $QCOM $MU $CRM $GE $O\u2026
p361
aV2018-04-22 | RT @JustinPulitzer: \U0001f195 Weekend Review VIDEO 4/22: https://t.co/rTpegSHu4L  $SPY $IWM $QQQ $TLT $MUB $HYG $O $EQR $PG $CLX $PM $MO $XLF $JPM\u2026
p362
aV2018-04-22 | RT @permabear_uk: The core list   Tier 1: $INTC $BAC $X $MU $GILD Tier 2: $CSCO $JPM $AAPL $BABA $ABBV Tier 3: $NVDA $MS $JD $APC $SCCO Tie\u2026
p363
aV2018-04-22 | Huge \U0001f4b0 from this #live #alert on $SPY Puts \u2757\ufe0f  Want  more \u26a0\ufe0f just like this one?   Check out\u2026 https://t.co/iRBCqOB3ff
p364
aV2018-04-22 | Huge \U0001f4b0 from this #live #alert on $SNAP \u2757\ufe0f  Want  more \u26a0\ufe0f just like this one?   Check out https://t.co/Lo3BFcJ6S3 fo\u2026 https://t.co/Bw6SQE7FK8
p365
aV2018-04-22 | [NEW]  Weekend Reading For Investors: Walk Don't Run --&gt; https://t.co/amn3ZIUWMa  feat. @KimbleCharting\u2026 https://t.co/yF4KGPi3vx
p366
aV2018-04-22 | RT @GS_CapSF: The Semi cycle could turn solely on $AAPL having to de-stock after a very large supply chain build for the iPhone X, which we\u2026
p367
aV2018-04-22 | New Video: Bollinger Bands and Keltner Channels Explained https://t.co/j4KmAk5rG7 $SPY $GLD $SLV $DIA $DJIA $IWM\u2026 https://t.co/aIvRTQvJ0y
p368
aV2018-04-22 | RT @realsheepwolf: \U0001f449 $FUSZ \U0001f448TIME TO THINK BIG\U0001f984SEIZE OPPORTUNITY AND LIVE BIG  $AAPL $INTC $CSCO $SIRI $SBUX $WMT $WFC $QCOM $MU $CRM $GE $O\u2026
p369
aV2018-04-22 | RT @crabbermike: $FUSZ Another Customer 4 @nFuszInc &amp; their Game changin Technology #notifiCRM https://t.co/2Vw5SHnZRk ENDLESS APPLICATIONS\u2026
p370
aV2018-04-22 | $FUSZ Another Customer 4 @nFuszInc &amp; their Game changin Technology #notifiCRM https://t.co/2Vw5SHnZRk ENDLESS APPLI\u2026 https://t.co/OQ4M6Re2F2
p371
aV2018-04-22 | RT @realsheepwolf: \U0001f449 $FUSZ \U0001f448TIME TO THINK BIG\U0001f984SEIZE OPPORTUNITY AND LIVE BIG  $AAPL $INTC $CSCO $SIRI $SBUX $WMT $WFC $QCOM $MU $CRM $GE $O\u2026
p372
aV2018-04-22 | RT @DayTradersGroup: \U0001f50aOur $amzn 1580 Call options now +403% - Yeeeeeaaahhhh   A test of March highs on deck?   -  Highest options vol on $S\u2026
p373
aV2018-04-22 | Long/Short FAANG Strategy Gains 4.2% For The Week https://t.co/Mklr2FHUgc $FB $AAPL $AMZN $NFLX $GOOGL\u2026 https://t.co/KlOknbrV4q
p374
aV2018-04-22 | @dcorrea1987 @jimcramer Odin Mason March 16 at 12:22am    .....once upon a time..... $AMD was worth 100's of bucks\u2026 https://t.co/5ecoCeXNvY
p375
aV2018-04-22 | RT @realsheepwolf: \U0001f449 $FUSZ \U0001f448TIME TO THINK BIG\U0001f984SEIZE OPPORTUNITY AND LIVE BIG  $AAPL $INTC $CSCO $SIRI $SBUX $WMT $WFC $QCOM $MU $CRM $GE $O\u2026
p376
aV2018-04-22 | Long/Short FAANG Strategy Gains 4.2% For The Week https://t.co/UaCMJBpq9L $FB $AAPL $AMZN $NFLX $GOOGL #tradingstrategy
p377
aV2018-04-22 | \U0001f449 $FUSZ \U0001f448TIME TO THINK BIG\U0001f984SEIZE OPPORTUNITY AND LIVE BIG  $AAPL $INTC $CSCO $SIRI $SBUX $WMT $WFC $QCOM $MU $CRM\u2026 https://t.co/f2hrVpnW7H
p378
aV2018-04-22 | Join @RobinhoodApp and we'll both get a stock like $AAPL, $F, or $S for free. Make sure to use my link.  https://t.co/bDOfcu4WYA
p379
aV2018-04-22 | ACTIVE TRADERS Try one of these FREE trading guides:  https://t.co/Rw7gOETJe9  $NFLX $TSLA $AAPL $JWN $GS $FB $AMZN $GOOGL $NVDA
p380
aV2018-04-22 | @jimcramer Odin Mason  March 16  here  is some good advice for all of you......GET OUT OF $FB $AAPL $GOOG $NVDA\u2026 https://t.co/NAIJAfkJKB
p381
aV2018-04-22 | With past performance like this, how can you not sign up for a Free 7-day trial to https://t.co/xADZUAKUH9? Winning\u2026 https://t.co/Q6qMpsGepN
p382
aV2018-04-22 | RT @DayTradersGroup: \U0001f50aOur $amzn 1580 Call options now +403% - Yeeeeeaaahhhh   A test of March highs on deck?   -  Highest options vol on $S\u2026
p383
asI4
(lp384
sI5
(lp385
sI6
(lp386
sI7
(lp387
sI8
(lp388
s.