(dp0
I0
(lp1
V2018-04-25 | Infosys Tech' $INFY settled +0.7% at $17.21. Price structure since Jan' is arguably just choppy consolidation, befo\u2026 https://t.co/kXc0gfXVci
p2
aV2018-04-25 | RT @StockRatingsHQ: Thursday, April 26th 2018 - New Buy, Sell or Hold Ratings Issued For:  $IFXY $NGBL $TEAM $ILST $BKEN $NFLX $OCSY $SQ $A\u2026
p3
aV2018-04-25 | Coming up later (around 7pm EST), the usual things. Taking your requests. Already on the list: $INFY $GE https://t.co/xjq7nHLpdU
p4
aV2018-04-25 | @permabear_uk thoughts on $INFY?
p5
aV2018-04-25 | $SVSA $240,000,000 project $4MIL cash $83,776,440 assets @ 05?! $BAC $GE $BMY $WFC $MU $YNDX $AMD $OCLR $MRK $F\u2026 https://t.co/bgnaCFilow
p6
aV2018-04-25 | $SVSA $240,000,000 project $4MIL cash $83,776,440 assets @ 03?! $BAC $GE $BMY $WFC $MU $YNDX $AMD $OCLR $MRK $F\u2026 https://t.co/JKURKtJZKV
p7
aV2018-04-25 | $SVSA News not PR'D or seen IN US\U0001f4c8\U0001f4b8\U0001f52d https://t.co/rawne3uKfv $BAC $GE $BMY $WFC $MU $YNDX $AMD $OCLR $MRK $F $AAPL\u2026 https://t.co/iqZpt8HsJ3
p8
aV2018-04-25 | $SVSA 027 target $1+. Ur gonna want these shares here. $BAC $GE $BMY $WFC $MU $YNDX $AMD $OCLR $MRK $F $AAPL $RIG\u2026 https://t.co/QVB8T5srn4
p9
aV2018-04-25 | A bullish Big MAC (Bullish) has occurred at 11:15 AM Apr 25 at  $17.32 on Infosys Ltd (INFY) $INFY Want to Earn(Reg\u2026 https://t.co/aE2ntxvwP9
p10
aV2018-04-25 | Reviewing Verisign $VRSN and Infosys $INFY https://t.co/BMHNfNNxb2
p11
aV2018-04-25 | Infosys $INFY and Verisign $VRSN Head-To-Head Review https://t.co/slmgNjj3JT
p12
aV2018-04-25 | RT @StockRatingsHQ: Thursday, April 26th 2018 - New Buy, Sell or Hold Ratings Issued For:  $IFXY $NGBL $TEAM $ILST $BKEN $NFLX $OCSY $SQ $A\u2026
p13
aV2018-04-25 | Reviewing Verisign $VRSN and Infosys $INFY https://t.co/J392JQKauX
p14
aV2018-04-25 | Thursday, April 26th 2018 - New Buy, Sell or Hold Ratings Issued For:  $IFXY $NGBL $TEAM $ILST $BKEN $NFLX $OCSY\u2026 https://t.co/zBizsitDdU
p15
aV2018-04-25 | INFY SELL WEEKLY - RSI DIVERGENCE $INFY https://t.co/Ze8SsEwhVP
p16
aV2018-04-25 | Q3 2019 EPS Estimates for Infosys Cut by KeyCorp $INFY https://t.co/pDGYwgVUAD
p17
aV2018-04-25 | Q3 2019 EPS Estimates for Infosys Cut by KeyCorp $INFY https://t.co/sxvLLIOZBr
p18
aV2018-04-25 | KeyCorp Lowers Infosys Q3 2019 Earnings Estimates to $0.26 EPS (Previously $0.27). https://t.co/p3YlLfb0hZ $INFY #INFY
p19
aV2018-04-25 | RT @PortoRicanRasta: $NVCN https://t.co/RYwAI5rkmZ Medical device maker Boston Scientific tops profit estimates, raises forecast $STNG $F $\u2026
p20
aV2018-04-25 | $NVCN https://t.co/RYwAI5rkmZ Medical device maker Boston Scientific tops profit estimates, raises forecast $STNG\u2026 https://t.co/c0Xo4BvOwE
p21
aV2018-04-25 | Weekly Research Analysts\u2019 Ratings Changes for Infosys $INFY https://t.co/I1b6xrt6tT
p22
aV2018-04-25 | $NVCN Institutions are loading up on Neovasc $STNG $F $DAL $UVXY $BBD $FCX $MSFT $IQ $PFE $USO $C $XLE $AKS $TEVA\u2026 https://t.co/t6dtWIqI8T
p23
aV2018-04-25 | Infosys $INFY Shares Gap Down to $17.42 https://t.co/Mpwox6ALHE
p24
aV2018-04-25 | Infosys $INFY Shares Gap Down to $17.42 https://t.co/MeLkIbsRAw
p25
aV2018-04-25 | Infosys $INFY Receiving Somewhat Favorable News Coverage, Report Shows https://t.co/2zvvjQztQ7
p26
aV2018-04-25 | Somewhat Favorable Press Coverage Somewhat Unlikely to Affect Infosys $INFY Share Price https://t.co/WHWt4qXn8d
p27
aV2018-04-25 | $INFY Possible short. - S: $17.01 / SL: $17.25 https://t.co/lQRaSAeBr5
p28
asI1
(lp29
V2018-04-24 | RT @StockRatingsHQ: Wednesday, April 25th 2018 - New Buy, Sell or Hold Ratings Issued For:  $IFXY $NGBL $TEAM $ILST $BKEN $NFLX $OCSY $SQ $\u2026
p30
aV2018-04-24 | Tough day for #DOW $NVCN Neovasc is TRENDING UP $STNG $F $DAL $UVXY $BBD $FCX $MSFT $IQ $PFE $USO $C $XLE $AKS\u2026 https://t.co/3Df6SwF8Ns
p31
aV2018-04-24 | RT @loudanepro: $FUSZ SHORT-SQUEEZE time. Presenting in L.V. now! CRM disruption! Amazing. $AAPL $GOOG $MSFT $ORCL $FB $INTV $CSCO $TSM $NV\u2026
p32
aV2018-04-24 | RT @loudanepro: $FUSZ NBC news! Disruption in CRM! SHORT-SQUEEZE: https://t.co/DQ6fyXOMog $AAPL $GOOG $MSFT $ORCL $FB $INTV $CSCO $TSM $NVD\u2026
p33
aV2018-04-24 | RT @loudanepro: $FUSZ SHORT-SQUEEZE time. Presenting in L.V. now! CRM disruption! Amazing. $AAPL $GOOG $MSFT $ORCL $FB $INTV $CSCO $TSM $NV\u2026
p34
aV2018-04-24 | RT @loudanepro: $fusz $AAPL $GOOG $MSFT $ORCL $FB $INTV $CSCO $TSM $NVDA $IBM $SAP $ADBE $TXN $AVGO $CRM $QCOM $BIDU $AABA $MU $VMW $ITW $A\u2026
p35
aV2018-04-24 | RT @loudanepro: $FUSZ NBC news! Disruption in CRM! SHORT-SQUEEZE: https://t.co/DQ6fyXOMog $AAPL $GOOG $MSFT $ORCL $FB $INTV $CSCO $TSM $NVD\u2026
p36
aV2018-04-24 | RT @loudanepro: $fusz $AAPL $GOOG $MSFT $ORCL $FB $INTV $CSCO $TSM $NVDA $IBM $SAP $ADBE $TXN $AVGO $CRM $QCOM $BIDU $AABA $MU $VMW $ITW $A\u2026
p37
aV2018-04-24 | RT @loudanepro: $FUSZ SHORT-SQUEEZE time. Presenting in L.V. now! CRM disruption! Amazing. $AAPL $GOOG $MSFT $ORCL $FB $INTV $CSCO $TSM $NV\u2026
p38
aV2018-04-24 | RT @loudanepro: $FUSZ NBC news! Disruption in CRM! SHORT-SQUEEZE: https://t.co/DQ6fyXOMog $AAPL $GOOG $MSFT $ORCL $FB $INTV $CSCO $TSM $NVD\u2026
p39
aV2018-04-24 | RT @picks_alert: $ACOL HUGE NEWS Acology Purchases Entire MedTainer Intellectual Property Portfolio https://t.co/dQvcu3lfXg @frontpagestock\u2026
p40
aV2018-04-24 | RT @loudanepro: $FUSZ NBC news! Disruption in CRM! SHORT-SQUEEZE: https://t.co/DQ6fyXOMog $AAPL $GOOG $MSFT $ORCL $FB $INTV $CSCO $TSM $NVD\u2026
p41
aV2018-04-24 | RT @loudanepro: $FUSZ NBC news! Disruption in CRM! SHORT-SQUEEZE: https://t.co/DQ6fyXOMog $AAPL $GOOG $MSFT $ORCL $FB $INTV $CSCO $TSM $NVD\u2026
p42
aV2018-04-24 | $fusz $AAPL $GOOG $MSFT $ORCL $FB $INTV $CSCO $TSM $NVDA $IBM $SAP $ADBE $TXN $AVGO $CRM $QCOM $BIDU $AABA $MU $VMW\u2026 https://t.co/A5wORM179u
p43
aV2018-04-24 | RT @loudanepro: $FUSZ NBC news! Disruption in CRM! SHORT-SQUEEZE: https://t.co/DQ6fyXOMog $AAPL $GOOG $MSFT $ORCL $FB $INTV $CSCO $TSM $NVD\u2026
p44
aV2018-04-24 | RT @loudanepro: $FUSZ NBC news! Disruption in CRM! SHORT-SQUEEZE: https://t.co/DQ6fyXOMog $AAPL $GOOG $MSFT $ORCL $FB $INTV $CSCO $TSM $NVD\u2026
p45
aV2018-04-24 | $FUSZ SHORT-SQUEEZE time. Presenting in L.V. now! CRM disruption! Amazing. $AAPL $GOOG $MSFT $ORCL $FB $INTV $CSCO\u2026 https://t.co/JxqlA1u6mO
p46
aV2018-04-24 | RT @loudanepro: $FUSZ NBC news! Disruption in CRM! SHORT-SQUEEZE: https://t.co/DQ6fyXOMog $AAPL $GOOG $MSFT $ORCL $FB $INTV $CSCO $TSM $NVD\u2026
p47
aV2018-04-24 | $FUSZ NBC news! Disruption in CRM! SHORT-SQUEEZE: https://t.co/DQ6fyXOMog $AAPL $GOOG $MSFT $ORCL $FB $INTV $CSCO\u2026 https://t.co/R82mGlr5Xr
p48
aV2018-04-24 | $SVSA .04 target $1+. Ur gonna want these shares here. $BAC $GE $BMY $WFC $MU $YNDX $AMD $OCLR $MRK $F $AAPL $RIG\u2026 https://t.co/YRpAXdb55u
p49
aV2018-04-24 | $ACOL News! Acology Purchases Entire MedTainer Intellectual Property Portfolio https://t.co/rfBiDtW9So\u2026 https://t.co/HdkfgGJ0oS
p50
aV2018-04-24 | RT @StockRatingsHQ: Wednesday, April 25th 2018 - New Buy, Sell or Hold Ratings Issued For:  $IFXY $NGBL $TEAM $ILST $BKEN $NFLX $OCSY $SQ $\u2026
p51
aV2018-04-24 | RT @kalrasam: @TargetInvesting $INFY \u20b9INFY Infosys did Investor meet yesterday and below are the important slides and our analysis of the s\u2026
p52
aV2018-04-24 | $SVSA News not PR'D or seen IN US\U0001f4c8\U0001f4b8\U0001f52d https://t.co/rawne3uKfv $BAC $GE $BMY $WFC $MU $YNDX $AMD $OCLR $MRK $F $AAPL\u2026 https://t.co/lGoGVFd2lC
p53
aV2018-04-24 | Wednesday, April 25th 2018 - New Buy, Sell or Hold Ratings Issued For:  $IFXY $NGBL $TEAM $ILST $BKEN $NFLX $OCSY\u2026 https://t.co/BFAZH4epel
p54
aV2018-04-24 | Indian markets continue to climb, more news about $WMT's Flipkart acquisition &amp; more https://t.co/ooL7tnu6s1 $WMT\u2026 https://t.co/nQSO5Afm5t
p55
aV2018-04-24 | @TargetInvesting $INFY \u20b9INFY did Investor meet yesterday and below are the important slides and our analysis of the\u2026 https://t.co/lVnB0P7kVq
p56
aV2018-04-24 | RT @kalrasam: @TargetInvesting $INFY \u20b9INFY Infosys did Investor meet yesterday and below are the important slides and our analysis of the s\u2026
p57
aV2018-04-24 | @TargetInvesting $INFY \u20b9INFY Infosys did Investor meet yesterday and below are the important slides and our analysi\u2026 https://t.co/qhjN5BQ7Xh
p58
aV2018-04-24 | 2018-04-23 Short sell volume percent for $INFY is 64%. https://t.co/Y0BCeckRvo $ORCL 31% $HPQ 54% $XLK 76% $INFY 64%
p59
aV2018-04-24 | $SVSA News not PR'D or seen IN US\U0001f4c8\U0001f4b8\U0001f52d https://t.co/rawne3uKfv $BAC $GE $BMY $WFC $MU $YNDX $AMD $OCLR $MRK $F $AAPL\u2026 https://t.co/qgVfP9sluU
p60
aV2018-04-24 | $SVSA News not PR'D or KNOWN OF IN US\U0001f4b8 https://t.co/rawne3uKfv $BAC $GE $BMY $WFC $MU $YNDX $AMD $OCLR $MRK $F\u2026 https://t.co/QPrVcbyVS5
p61
asI2
(lp62
V2018-04-23 | RT @StockRatingsHQ: Tuesday, April 24th 2018 - New Buy, Sell or Hold Ratings Issued For:  $INFY $OAS $TEVA $DVN $AKS $WMT $BHGE $IBM $ERFB\u2026
p63
aV2018-04-23 | RT @picks_alert: $ACOL HUGE NEWS Acology Purchases Entire MedTainer Intellectual Property Portfolio https://t.co/dQvcu3lfXg @frontpagestock\u2026
p64
aV2018-04-23 | RT @SAlphaTech: Infosys CEO reiterates belief in digital services growth, reveals three-year plan https://t.co/MhxRsNFlKs $INFY
p65
aV2018-04-23 | Infosys CEO reiterates belief in digital services growth, reveals three-year plan https://t.co/MhxRsNFlKs $INFY
p66
aV2018-04-23 | Infosys CEO reiterates belief in digital services growth, reveals three-year plan https://t.co/OD0w5eS953 $INFY
p67
aV2018-04-23 | $ACOL HUGE NEWS Acology Purchases Entire MedTainer Intellectual Property Portfolio https://t.co/dQvcu3lfXg\u2026 https://t.co/WMiUQI7CFr
p68
aV2018-04-23 | RT @StocksHighAlert: $DNAD DNA Dynamics, Inc. Expands Blockchain DNA LLC Team https://t.co/EuskbHEybo @frontpagestocks   $QNST $IMUC $APRI\u2026
p69
aV2018-04-23 | $SVSA $240,000,000 project $4MIL cash $83,776,440 assets @ 03?! $BAC $GE $BMY $WFC $MU $YNDX $AMD $OCLR $MRK $F\u2026 https://t.co/sKtNL55buz
p70
aV2018-04-23 | RT @StockRatingsHQ: Tuesday, April 24th 2018 - New Buy, Sell or Hold Ratings Issued For:  $INFY $OAS $TEVA $DVN $AKS $WMT $BHGE $IBM $ERFB\u2026
p71
aV2018-04-23 | $DNAD DNA Dynamics, Inc. Expands Blockchain DNA LLC Team https://t.co/EuskbHEybo @frontpagestocks   $QNST $IMUC\u2026 https://t.co/olXYzwgEBf
p72
aV2018-04-23 | Tuesday, April 24th 2018 - New Buy, Sell or Hold Ratings Issued For:  $INFY $OAS $TEVA $DVN $AKS $WMT $BHGE $IBM\u2026 https://t.co/cvNkeBrf8a
p73
aV2018-04-23 | #marital asset watch - unusual volume advance this morning:  $PRTA $AGFX $AKRX $VVC $MDR $GPRK $CBI $HTM $HAS $IPOA\u2026 https://t.co/tgaCQnGu9i
p74
aV2018-04-23 | A bullish Big MAC (Bullish) has occurred at 11:30 AM Apr 23 at  $17.44 on Infosys Ltd (INFY) $INFY Want to Earn(Reg\u2026 https://t.co/u5i7Oc47Pd
p75
aV2018-04-23 | $INFY\u2019s analyst day https://t.co/4rcnojUTdE $WIT $CTSH $DXC $ACN https://t.co/xggVyVaKF8
p76
aV2018-04-23 | $SVSA $240,000,000 project $4MIL cash $83,776,440 assets @ 05?! $BAC $GE $BMY $WFC $MU $YNDX $AMD $OCLR $MRK $F\u2026 https://t.co/ATQkAxdoVf
p77
aV2018-04-23 | Mkts are flat, TCS's $100b journey, ecomm future is an all american affair more https://t.co/Q0ahVHozey $INFY $WIT\u2026 https://t.co/qotKAD9kDb
p78
aV2018-04-23 | RT @TheBurdetteLawF: #estate asset watch - volume leaders at the open:  $MDR $AKRX $CBI $PRTA $ERIC $GE $AMD $AAPL $CMCSA $CL $TOT $RIO $AA\u2026
p79
aV2018-04-23 | RT @aaaamhim: $SVSA 045 -27%%! Unknown. $240,000,000 project $4MIL cash $83,776,440 assets! $BAC $GE $BMY $WFC $MU $YNDX $AMD $OCLR $MRK $F\u2026
p80
aV2018-04-23 | #estate asset watch - volume leaders at the open:  $MDR $AKRX $CBI $PRTA $ERIC $GE $AMD $AAPL $CMCSA $CL $TOT $RIO\u2026 https://t.co/RsTJt2w10D
p81
aV2018-04-23 | RT @Super1NYC: #Premarket Top % Gainers: $MOC 25%, $MDR 17%, $SHLD $SALT $ABEO $DSLV $VERI $MYSZ $DPW $VVC $PHG $OKTA $JDST $DWT $OILD $DUS\u2026
p82
aV2018-04-23 | RT @Super1NYC: #Premarket Top % Gainers: $MOC 25%, $MDR 17%, $SHLD $SALT $ABEO $DSLV $VERI $MYSZ $DPW $VVC $PHG $OKTA $JDST $DWT $OILD $DUS\u2026
p83
aV2018-04-23 | RT @Super1NYC: #Premarket Top % Gainers: $MOC 25%, $MDR 17%, $SHLD $SALT $ABEO $DSLV $VERI $MYSZ $DPW $VVC $PHG $OKTA $JDST $DWT $OILD $DUS\u2026
p84
aV2018-04-23 | #Premarket Top % Gainers: $MOC 25%, $MDR 17%, $SHLD $SALT $ABEO $DSLV $VERI $MYSZ $DPW $VVC $PHG $OKTA $JDST $DWT\u2026 https://t.co/TQItY8MsI0
p85
aV2018-04-23 | $SVSA 045 -27%%! Unknown. $240,000,000 project $4MIL cash $83,776,440 assets! $BAC $GE $BMY $WFC $MU $YNDX $AMD\u2026 https://t.co/V89jfE9W8h
p86
aV2018-04-23 | $INFY #Infosys gains in premarket trading. See vwap price action. https://t.co/Q7Q9sumcgP https://t.co/EDlRkWRA3L
p87
aV2018-04-23 | Most Active Premarket $TVIX $SPY $UVXY $QQQ $AKRX $ERIC $USO $GLD $SLV $EEM $GDX $UCO $SPXL $SQQQ $GE $INFY $NOK\u2026 https://t.co/Q9YOf2iSis
p88
aV2018-04-23 | $SVSA 045 -27%%! Unknown. $240,000,000 project $4MIL cash $83,776,440 assets! $BAC $GE $BMY $WFC $MU $YNDX $AMD\u2026 https://t.co/T3mE56XSSK
p89
aV2018-04-23 | $SVSA $240,000,000 project $4MIL cash $83,776,440 assets @ 05?! $BAC $GE $BMY $WFC $MU $YNDX $AMD $OCLR $MRK $F\u2026 https://t.co/4Imz1ddulC
p90
asI3
(lp91
V2018-04-22 | RT @StockRatingsHQ: Monday, April 23rd 2018 - New Buy, Sell or Hold Ratings Issued For:  $IFXY $NGBL $TEAM $ILST $BKEN $NFLX $OCSY $SQ $ABX\u2026
p92
aV2018-04-22 | RT @StockRatingsHQ: Monday, April 23rd 2018 - New Buy, Sell or Hold Ratings Issued For:  $IFXY $NGBL $TEAM $ILST $BKEN $NFLX $OCSY $SQ $ABX\u2026
p93
aV2018-04-22 | Monday, April 23rd 2018 - New Buy, Sell or Hold Ratings Issued For:  $IFXY $NGBL $TEAM $ILST $BKEN $NFLX $OCSY $SQ\u2026 https://t.co/qXnTQEA8sx
p94
aV2018-04-22 | #estate asset watch - price gaps in Fri. premarket - up:  $IONS $PF $MSCC $MAC $HON $ASB $ERIC $GE $XNET $INFY\u2026 https://t.co/ahJ9EM9lsX
p95
aV2018-04-22 | Infosys $INFY Shares Gap Up to $17.17 https://t.co/RzknwfcKoN
p96
aV2018-04-22 | Infosys $INFY Shares Gap Up to $17.17  https://t.co/HnxV50ipUI
p97
aV2018-04-22 | RT @StockRatingsHQ: Monday, April 23rd 2018 - New Buy, Sell or Hold Ratings Issued For:  $IFXY $NGBL $TEAM $ILST $BKEN $NFLX $OCSY $SQ $ABX\u2026
p98
asI4
(lp99
sI5
(lp100
sI6
(lp101
sI7
(lp102
sI8
(lp103
s.